
bufbomb:     file format elf32-i386


Disassembly of section .init:

08048764 <_init>:
 8048764:	55                   	push   %ebp
 8048765:	89 e5                	mov    %esp,%ebp
 8048767:	53                   	push   %ebx
 8048768:	83 ec 04             	sub    $0x4,%esp
 804876b:	e8 00 00 00 00       	call   8048770 <_init+0xc>
 8048770:	5b                   	pop    %ebx
 8048771:	81 c3 84 38 00 00    	add    $0x3884,%ebx
 8048777:	8b 93 fc ff ff ff    	mov    -0x4(%ebx),%edx
 804877d:	85 d2                	test   %edx,%edx
 804877f:	74 05                	je     8048786 <_init+0x22>
 8048781:	e8 8e 00 00 00       	call   8048814 <__gmon_start__@plt>
 8048786:	e8 d5 02 00 00       	call   8048a60 <frame_dummy>
 804878b:	e8 00 18 00 00       	call   8049f90 <__do_global_ctors_aux>
 8048790:	58                   	pop    %eax
 8048791:	5b                   	pop    %ebx
 8048792:	c9                   	leave  
 8048793:	c3                   	ret    

Disassembly of section .plt:

08048794 <__errno_location@plt-0x10>:
 8048794:	ff 35 f8 bf 04 08    	pushl  0x804bff8
 804879a:	ff 25 fc bf 04 08    	jmp    *0x804bffc
 80487a0:	00 00                	add    %al,(%eax)
	...

080487a4 <__errno_location@plt>:
 80487a4:	ff 25 00 c0 04 08    	jmp    *0x804c000
 80487aa:	68 00 00 00 00       	push   $0x0
 80487af:	e9 e0 ff ff ff       	jmp    8048794 <_init+0x30>

080487b4 <srand@plt>:
 80487b4:	ff 25 04 c0 04 08    	jmp    *0x804c004
 80487ba:	68 08 00 00 00       	push   $0x8
 80487bf:	e9 d0 ff ff ff       	jmp    8048794 <_init+0x30>

080487c4 <connect@plt>:
 80487c4:	ff 25 08 c0 04 08    	jmp    *0x804c008
 80487ca:	68 10 00 00 00       	push   $0x10
 80487cf:	e9 c0 ff ff ff       	jmp    8048794 <_init+0x30>

080487d4 <mmap@plt>:
 80487d4:	ff 25 0c c0 04 08    	jmp    *0x804c00c
 80487da:	68 18 00 00 00       	push   $0x18
 80487df:	e9 b0 ff ff ff       	jmp    8048794 <_init+0x30>

080487e4 <random@plt>:
 80487e4:	ff 25 10 c0 04 08    	jmp    *0x804c010
 80487ea:	68 20 00 00 00       	push   $0x20
 80487ef:	e9 a0 ff ff ff       	jmp    8048794 <_init+0x30>

080487f4 <__fprintf_chk@plt>:
 80487f4:	ff 25 14 c0 04 08    	jmp    *0x804c014
 80487fa:	68 28 00 00 00       	push   $0x28
 80487ff:	e9 90 ff ff ff       	jmp    8048794 <_init+0x30>

08048804 <signal@plt>:
 8048804:	ff 25 18 c0 04 08    	jmp    *0x804c018
 804880a:	68 30 00 00 00       	push   $0x30
 804880f:	e9 80 ff ff ff       	jmp    8048794 <_init+0x30>

08048814 <__gmon_start__@plt>:
 8048814:	ff 25 1c c0 04 08    	jmp    *0x804c01c
 804881a:	68 38 00 00 00       	push   $0x38
 804881f:	e9 70 ff ff ff       	jmp    8048794 <_init+0x30>

08048824 <__isoc99_sscanf@plt>:
 8048824:	ff 25 20 c0 04 08    	jmp    *0x804c020
 804882a:	68 40 00 00 00       	push   $0x40
 804882f:	e9 60 ff ff ff       	jmp    8048794 <_init+0x30>

08048834 <__printf_chk@plt>:
 8048834:	ff 25 24 c0 04 08    	jmp    *0x804c024
 804883a:	68 48 00 00 00       	push   $0x48
 804883f:	e9 50 ff ff ff       	jmp    8048794 <_init+0x30>

08048844 <calloc@plt>:
 8048844:	ff 25 28 c0 04 08    	jmp    *0x804c028
 804884a:	68 50 00 00 00       	push   $0x50
 804884f:	e9 40 ff ff ff       	jmp    8048794 <_init+0x30>

08048854 <write@plt>:
 8048854:	ff 25 2c c0 04 08    	jmp    *0x804c02c
 804885a:	68 58 00 00 00       	push   $0x58
 804885f:	e9 30 ff ff ff       	jmp    8048794 <_init+0x30>

08048864 <memset@plt>:
 8048864:	ff 25 30 c0 04 08    	jmp    *0x804c030
 804886a:	68 60 00 00 00       	push   $0x60
 804886f:	e9 20 ff ff ff       	jmp    8048794 <_init+0x30>

08048874 <__libc_start_main@plt>:
 8048874:	ff 25 34 c0 04 08    	jmp    *0x804c034
 804887a:	68 68 00 00 00       	push   $0x68
 804887f:	e9 10 ff ff ff       	jmp    8048794 <_init+0x30>

08048884 <_IO_getc@plt>:
 8048884:	ff 25 38 c0 04 08    	jmp    *0x804c038
 804888a:	68 70 00 00 00       	push   $0x70
 804888f:	e9 00 ff ff ff       	jmp    8048794 <_init+0x30>

08048894 <__memcpy_chk@plt>:
 8048894:	ff 25 3c c0 04 08    	jmp    *0x804c03c
 804889a:	68 78 00 00 00       	push   $0x78
 804889f:	e9 f0 fe ff ff       	jmp    8048794 <_init+0x30>

080488a4 <read@plt>:
 80488a4:	ff 25 40 c0 04 08    	jmp    *0x804c040
 80488aa:	68 80 00 00 00       	push   $0x80
 80488af:	e9 e0 fe ff ff       	jmp    8048794 <_init+0x30>

080488b4 <socket@plt>:
 80488b4:	ff 25 44 c0 04 08    	jmp    *0x804c044
 80488ba:	68 88 00 00 00       	push   $0x88
 80488bf:	e9 d0 fe ff ff       	jmp    8048794 <_init+0x30>

080488c4 <getopt@plt>:
 80488c4:	ff 25 48 c0 04 08    	jmp    *0x804c048
 80488ca:	68 90 00 00 00       	push   $0x90
 80488cf:	e9 c0 fe ff ff       	jmp    8048794 <_init+0x30>

080488d4 <alarm@plt>:
 80488d4:	ff 25 4c c0 04 08    	jmp    *0x804c04c
 80488da:	68 98 00 00 00       	push   $0x98
 80488df:	e9 b0 fe ff ff       	jmp    8048794 <_init+0x30>

080488e4 <strcpy@plt>:
 80488e4:	ff 25 50 c0 04 08    	jmp    *0x804c050
 80488ea:	68 a0 00 00 00       	push   $0xa0
 80488ef:	e9 a0 fe ff ff       	jmp    8048794 <_init+0x30>

080488f4 <strcasecmp@plt>:
 80488f4:	ff 25 54 c0 04 08    	jmp    *0x804c054
 80488fa:	68 a8 00 00 00       	push   $0xa8
 80488ff:	e9 90 fe ff ff       	jmp    8048794 <_init+0x30>

08048904 <srandom@plt>:
 8048904:	ff 25 58 c0 04 08    	jmp    *0x804c058
 804890a:	68 b0 00 00 00       	push   $0xb0
 804890f:	e9 80 fe ff ff       	jmp    8048794 <_init+0x30>

08048914 <close@plt>:
 8048914:	ff 25 5c c0 04 08    	jmp    *0x804c05c
 804891a:	68 b8 00 00 00       	push   $0xb8
 804891f:	e9 70 fe ff ff       	jmp    8048794 <_init+0x30>

08048924 <fwrite@plt>:
 8048924:	ff 25 60 c0 04 08    	jmp    *0x804c060
 804892a:	68 c0 00 00 00       	push   $0xc0
 804892f:	e9 60 fe ff ff       	jmp    8048794 <_init+0x30>

08048934 <gethostname@plt>:
 8048934:	ff 25 64 c0 04 08    	jmp    *0x804c064
 804893a:	68 c8 00 00 00       	push   $0xc8
 804893f:	e9 50 fe ff ff       	jmp    8048794 <_init+0x30>

08048944 <puts@plt>:
 8048944:	ff 25 68 c0 04 08    	jmp    *0x804c068
 804894a:	68 d0 00 00 00       	push   $0xd0
 804894f:	e9 40 fe ff ff       	jmp    8048794 <_init+0x30>

08048954 <rand@plt>:
 8048954:	ff 25 6c c0 04 08    	jmp    *0x804c06c
 804895a:	68 d8 00 00 00       	push   $0xd8
 804895f:	e9 30 fe ff ff       	jmp    8048794 <_init+0x30>

08048964 <__sprintf_chk@plt>:
 8048964:	ff 25 70 c0 04 08    	jmp    *0x804c070
 804896a:	68 e0 00 00 00       	push   $0xe0
 804896f:	e9 20 fe ff ff       	jmp    8048794 <_init+0x30>

08048974 <munmap@plt>:
 8048974:	ff 25 74 c0 04 08    	jmp    *0x804c074
 804897a:	68 e8 00 00 00       	push   $0xe8
 804897f:	e9 10 fe ff ff       	jmp    8048794 <_init+0x30>

08048984 <__memmove_chk@plt>:
 8048984:	ff 25 78 c0 04 08    	jmp    *0x804c078
 804898a:	68 f0 00 00 00       	push   $0xf0
 804898f:	e9 00 fe ff ff       	jmp    8048794 <_init+0x30>

08048994 <gethostbyname@plt>:
 8048994:	ff 25 7c c0 04 08    	jmp    *0x804c07c
 804899a:	68 f8 00 00 00       	push   $0xf8
 804899f:	e9 f0 fd ff ff       	jmp    8048794 <_init+0x30>

080489a4 <__strdup@plt>:
 80489a4:	ff 25 80 c0 04 08    	jmp    *0x804c080
 80489aa:	68 00 01 00 00       	push   $0x100
 80489af:	e9 e0 fd ff ff       	jmp    8048794 <_init+0x30>

080489b4 <exit@plt>:
 80489b4:	ff 25 84 c0 04 08    	jmp    *0x804c084
 80489ba:	68 08 01 00 00       	push   $0x108
 80489bf:	e9 d0 fd ff ff       	jmp    8048794 <_init+0x30>

Disassembly of section .text:

080489d0 <_start>:
 80489d0:	31 ed                	xor    %ebp,%ebp
 80489d2:	5e                   	pop    %esi
 80489d3:	89 e1                	mov    %esp,%ecx
 80489d5:	83 e4 f0             	and    $0xfffffff0,%esp
 80489d8:	50                   	push   %eax
 80489d9:	54                   	push   %esp
 80489da:	52                   	push   %edx
 80489db:	68 80 9f 04 08       	push   $0x8049f80
 80489e0:	68 20 9f 04 08       	push   $0x8049f20
 80489e5:	51                   	push   %ecx
 80489e6:	56                   	push   %esi
 80489e7:	68 51 8f 04 08       	push   $0x8048f51
 80489ec:	e8 83 fe ff ff       	call   8048874 <__libc_start_main@plt>
 80489f1:	f4                   	hlt    
 80489f2:	90                   	nop
 80489f3:	90                   	nop
 80489f4:	90                   	nop
 80489f5:	90                   	nop
 80489f6:	90                   	nop
 80489f7:	90                   	nop
 80489f8:	90                   	nop
 80489f9:	90                   	nop
 80489fa:	90                   	nop
 80489fb:	90                   	nop
 80489fc:	90                   	nop
 80489fd:	90                   	nop
 80489fe:	90                   	nop
 80489ff:	90                   	nop

08048a00 <__do_global_dtors_aux>:
 8048a00:	55                   	push   %ebp
 8048a01:	89 e5                	mov    %esp,%ebp
 8048a03:	53                   	push   %ebx
 8048a04:	83 ec 04             	sub    $0x4,%esp
 8048a07:	80 3d 04 d1 04 08 00 	cmpb   $0x0,0x804d104
 8048a0e:	75 3f                	jne    8048a4f <__do_global_dtors_aux+0x4f>
 8048a10:	a1 08 d1 04 08       	mov    0x804d108,%eax
 8048a15:	bb 20 bf 04 08       	mov    $0x804bf20,%ebx
 8048a1a:	81 eb 1c bf 04 08    	sub    $0x804bf1c,%ebx
 8048a20:	c1 fb 02             	sar    $0x2,%ebx
 8048a23:	83 eb 01             	sub    $0x1,%ebx
 8048a26:	39 d8                	cmp    %ebx,%eax
 8048a28:	73 1e                	jae    8048a48 <__do_global_dtors_aux+0x48>
 8048a2a:	8d b6 00 00 00 00    	lea    0x0(%esi),%esi
 8048a30:	83 c0 01             	add    $0x1,%eax
 8048a33:	a3 08 d1 04 08       	mov    %eax,0x804d108
 8048a38:	ff 14 85 1c bf 04 08 	call   *0x804bf1c(,%eax,4)
 8048a3f:	a1 08 d1 04 08       	mov    0x804d108,%eax
 8048a44:	39 d8                	cmp    %ebx,%eax
 8048a46:	72 e8                	jb     8048a30 <__do_global_dtors_aux+0x30>
 8048a48:	c6 05 04 d1 04 08 01 	movb   $0x1,0x804d104
 8048a4f:	83 c4 04             	add    $0x4,%esp
 8048a52:	5b                   	pop    %ebx
 8048a53:	5d                   	pop    %ebp
 8048a54:	c3                   	ret    
 8048a55:	8d 74 26 00          	lea    0x0(%esi,%eiz,1),%esi
 8048a59:	8d bc 27 00 00 00 00 	lea    0x0(%edi,%eiz,1),%edi

08048a60 <frame_dummy>:
 8048a60:	55                   	push   %ebp
 8048a61:	89 e5                	mov    %esp,%ebp
 8048a63:	83 ec 18             	sub    $0x18,%esp
 8048a66:	a1 24 bf 04 08       	mov    0x804bf24,%eax
 8048a6b:	85 c0                	test   %eax,%eax
 8048a6d:	74 12                	je     8048a81 <frame_dummy+0x21>
 8048a6f:	b8 00 00 00 00       	mov    $0x0,%eax
 8048a74:	85 c0                	test   %eax,%eax
 8048a76:	74 09                	je     8048a81 <frame_dummy+0x21>
 8048a78:	c7 04 24 24 bf 04 08 	movl   $0x804bf24,(%esp)
 8048a7f:	ff d0                	call   *%eax
 8048a81:	c9                   	leave  
 8048a82:	c3                   	ret    
 8048a83:	90                   	nop
 8048a84:	90                   	nop
 8048a85:	90                   	nop
 8048a86:	90                   	nop
 8048a87:	90                   	nop
 8048a88:	90                   	nop
 8048a89:	90                   	nop
 8048a8a:	90                   	nop
 8048a8b:	90                   	nop
 8048a8c:	90                   	nop
 8048a8d:	90                   	nop
 8048a8e:	90                   	nop
 8048a8f:	90                   	nop

08048a90 <usage>:
 8048a90:	55                   	push   %ebp
 8048a91:	89 e5                	mov    %esp,%ebp
 8048a93:	83 ec 18             	sub    $0x18,%esp
 8048a96:	89 44 24 08          	mov    %eax,0x8(%esp)
 8048a9a:	c7 44 24 04 e0 9f 04 	movl   $0x8049fe0,0x4(%esp)
 8048aa1:	08 
 8048aa2:	c7 04 24 01 00 00 00 	movl   $0x1,(%esp)
 8048aa9:	e8 86 fd ff ff       	call   8048834 <__printf_chk@plt>
 8048aae:	c7 04 24 fe 9f 04 08 	movl   $0x8049ffe,(%esp)
 8048ab5:	e8 8a fe ff ff       	call   8048944 <puts@plt>
 8048aba:	c7 04 24 14 a0 04 08 	movl   $0x804a014,(%esp)
 8048ac1:	e8 7e fe ff ff       	call   8048944 <puts@plt>
 8048ac6:	c7 04 24 1c a1 04 08 	movl   $0x804a11c,(%esp)
 8048acd:	e8 72 fe ff ff       	call   8048944 <puts@plt>
 8048ad2:	c7 04 24 58 a1 04 08 	movl   $0x804a158,(%esp)
 8048ad9:	e8 66 fe ff ff       	call   8048944 <puts@plt>
 8048ade:	c7 04 24 00 00 00 00 	movl   $0x0,(%esp)
 8048ae5:	e8 ca fe ff ff       	call   80489b4 <exit@plt>

08048aea <illegalhandler>:
 8048aea:	55                   	push   %ebp
 8048aeb:	89 e5                	mov    %esp,%ebp
 8048aed:	83 ec 18             	sub    $0x18,%esp
 8048af0:	c7 04 24 80 a1 04 08 	movl   $0x804a180,(%esp)
 8048af7:	e8 48 fe ff ff       	call   8048944 <puts@plt>
 8048afc:	c7 04 24 2d a0 04 08 	movl   $0x804a02d,(%esp)
 8048b03:	e8 3c fe ff ff       	call   8048944 <puts@plt>
 8048b08:	c7 04 24 00 00 00 00 	movl   $0x0,(%esp)
 8048b0f:	e8 a0 fe ff ff       	call   80489b4 <exit@plt>

08048b14 <seghandler>:
 8048b14:	55                   	push   %ebp
 8048b15:	89 e5                	mov    %esp,%ebp
 8048b17:	83 ec 18             	sub    $0x18,%esp
 8048b1a:	c7 04 24 ac a1 04 08 	movl   $0x804a1ac,(%esp)
 8048b21:	e8 1e fe ff ff       	call   8048944 <puts@plt>
 8048b26:	c7 04 24 2d a0 04 08 	movl   $0x804a02d,(%esp)
 8048b2d:	e8 12 fe ff ff       	call   8048944 <puts@plt>
 8048b32:	c7 04 24 00 00 00 00 	movl   $0x0,(%esp)
 8048b39:	e8 76 fe ff ff       	call   80489b4 <exit@plt>

08048b3e <bushandler>:
 8048b3e:	55                   	push   %ebp
 8048b3f:	89 e5                	mov    %esp,%ebp
 8048b41:	83 ec 18             	sub    $0x18,%esp
 8048b44:	c7 04 24 d4 a1 04 08 	movl   $0x804a1d4,(%esp)
 8048b4b:	e8 f4 fd ff ff       	call   8048944 <puts@plt>
 8048b50:	c7 04 24 2d a0 04 08 	movl   $0x804a02d,(%esp)
 8048b57:	e8 e8 fd ff ff       	call   8048944 <puts@plt>
 8048b5c:	c7 04 24 00 00 00 00 	movl   $0x0,(%esp)
 8048b63:	e8 4c fe ff ff       	call   80489b4 <exit@plt>

08048b68 <smoke>:
 8048b68:	55                   	push   %ebp
 8048b69:	89 e5                	mov    %esp,%ebp
 8048b6b:	83 ec 18             	sub    $0x18,%esp
 8048b6e:	c7 04 24 43 a0 04 08 	movl   $0x804a043,(%esp)
 8048b75:	e8 ca fd ff ff       	call   8048944 <puts@plt>
 8048b7a:	c7 04 24 00 00 00 00 	movl   $0x0,(%esp)
 8048b81:	e8 03 07 00 00       	call   8049289 <validate>
 8048b86:	c7 04 24 00 00 00 00 	movl   $0x0,(%esp)
 8048b8d:	e8 22 fe ff ff       	call   80489b4 <exit@plt>

08048b92 <fizz>:
 8048b92:1	55                   	push   %ebp
 8048b93:3	89 e5                	mov    %esp,%ebp
 8048b95:6	83 ec 18             	sub    $0x18,%esp
 8048b98:9	8b 45 08             	mov    0x8(%ebp),%eax
 8048b9b:15	3b 05 18 d1 04 08    	cmp    0x804d118,%eax
 8048ba1:17	75 26                	jne    8048bc9 <fizz+0x37>
 8048ba3:21	89 44 24 08          	mov    %eax,0x8(%esp)
 8048ba7:28	c7 44 24 04 5e a0 04 	movl   $0x804a05e,0x4(%esp)
 8048bae:29	08 
 8048baf:36	c7 04 24 01 00 00 00 	movl   $0x1,(%esp)
 8048bb6:41	e8 79 fc ff ff       	call   8048834 <__printf_chk@plt>
 8048bbb:48	c7 04 24 01 00 00 00 	movl   $0x1,(%esp)
 8048bc2:53	e8 c2 06 00 00       	call   8049289 <validate>
 8048bc7:55	eb 18                	jmp    8048be1 <fizz+0x4f>
 8048bc9:59	89 44 24 08          	mov    %eax,0x8(%esp)
 8048bcd:66	c7 44 24 04 f4 a1 04 	movl   $0x804a1f4,0x4(%esp)
 8048bd4:67	08 
 8048bd5:74	c7 04 24 01 00 00 00 	movl   $0x1,(%esp)
 8048bdc:79	e8 53 fc ff ff       	call   8048834 <__printf_chk@plt>
 8048be1:86	c7 04 24 00 00 00 00 	movl   $0x0,(%esp)
 8048be8:91	e8 c7 fd ff ff       	call   80489b4 <exit@plt>

08048bed <bang>:
 8048bed:	55                   	push   %ebp
 8048bee:	89 e5                	mov    %esp,%ebp
 8048bf0:	83 ec 18             	sub    $0x18,%esp
 8048bf3:	a1 20 d1 04 08       	mov    0x804d120,%eax
 8048bf8:	3b 05 18 d1 04 08    	cmp    0x804d118,%eax
 8048bfe:	75 26                	jne    8048c26 <bang+0x39>
 8048c00:	89 44 24 08          	mov    %eax,0x8(%esp)
 8048c04:	c7 44 24 04 14 a2 04 	movl   $0x804a214,0x4(%esp)
 8048c0b:	08 
 8048c0c:	c7 04 24 01 00 00 00 	movl   $0x1,(%esp)
 8048c13:	e8 1c fc ff ff       	call   8048834 <__printf_chk@plt>
 8048c18:	c7 04 24 02 00 00 00 	movl   $0x2,(%esp)
 8048c1f:	e8 65 06 00 00       	call   8049289 <validate>
 8048c24:	eb 18                	jmp    8048c3e <bang+0x51>
 8048c26:	89 44 24 08          	mov    %eax,0x8(%esp)
 8048c2a:	c7 44 24 04 7c a0 04 	movl   $0x804a07c,0x4(%esp)
 8048c31:	08 
 8048c32:	c7 04 24 01 00 00 00 	movl   $0x1,(%esp)
 8048c39:	e8 f6 fb ff ff       	call   8048834 <__printf_chk@plt>
 8048c3e:	c7 04 24 00 00 00 00 	movl   $0x0,(%esp)
 8048c45:	e8 6a fd ff ff       	call   80489b4 <exit@plt>

08048c4a <Gets>:
 8048c4a:	55                   	push   %ebp
 8048c4b:	89 e5                	mov    %esp,%ebp
 8048c4d:	57                   	push   %edi
 8048c4e:	56                   	push   %esi
 8048c4f:	53                   	push   %ebx
 8048c50:	83 ec 2c             	sub    $0x2c,%esp
 8048c53:	8b 75 08             	mov    0x8(%ebp),%esi
 8048c56:	c7 05 24 d1 04 08 00 	movl   $0x0,0x804d124
 8048c5d:	00 00 00 
 8048c60:	89 f3                	mov    %esi,%ebx
 8048c62:	eb 55                	jmp    8048cb9 <Gets+0x6f>
 8048c64:	88 45 d8             	mov    %al,-0x28(%ebp)
 8048c67:	88 03                	mov    %al,(%ebx)
 8048c69:	83 c3 01             	add    $0x1,%ebx
 8048c6c:	a1 24 d1 04 08       	mov    0x804d124,%eax
 8048c71:	3d ff 03 00 00       	cmp    $0x3ff,%eax
 8048c76:	7f 41                	jg     8048cb9 <Gets+0x6f>
 8048c78:	8d 14 40             	lea    (%eax,%eax,2),%edx
 8048c7b:	0f b6 4d d8          	movzbl -0x28(%ebp),%ecx
 8048c7f:	c0 f9 04             	sar    $0x4,%cl
 8048c82:	89 cf                	mov    %ecx,%edi
 8048c84:	83 e7 0f             	and    $0xf,%edi
 8048c87:	0f b6 bf fc a2 04 08 	movzbl 0x804a2fc(%edi),%edi
 8048c8e:	89 f9                	mov    %edi,%ecx
 8048c90:	88 8a 40 d1 04 08    	mov    %cl,0x804d140(%edx)
 8048c96:	0f b6 4d d8          	movzbl -0x28(%ebp),%ecx
 8048c9a:	83 e1 0f             	and    $0xf,%ecx
 8048c9d:	0f b6 89 fc a2 04 08 	movzbl 0x804a2fc(%ecx),%ecx
 8048ca4:	88 8a 41 d1 04 08    	mov    %cl,0x804d141(%edx)
 8048caa:	c6 82 42 d1 04 08 20 	movb   $0x20,0x804d142(%edx)
 8048cb1:	83 c0 01             	add    $0x1,%eax
 8048cb4:	a3 24 d1 04 08       	mov    %eax,0x804d124
 8048cb9:	a1 14 d1 04 08       	mov    0x804d114,%eax
 8048cbe:	89 04 24             	mov    %eax,(%esp)
 8048cc1:	e8 be fb ff ff       	call   8048884 <_IO_getc@plt>
 8048cc6:	83 f8 ff             	cmp    $0xffffffff,%eax
 8048cc9:	74 05                	je     8048cd0 <Gets+0x86>
 8048ccb:	83 f8 0a             	cmp    $0xa,%eax
 8048cce:	75 94                	jne    8048c64 <Gets+0x1a>
 8048cd0:	c6 03 00             	movb   $0x0,(%ebx)
 8048cd3:	a1 24 d1 04 08       	mov    0x804d124,%eax
 8048cd8:	c6 84 40 40 d1 04 08 	movb   $0x0,0x804d140(%eax,%eax,2)
 8048cdf:	00 
 8048ce0:	89 f0                	mov    %esi,%eax
 8048ce2:	83 c4 2c             	add    $0x2c,%esp
 8048ce5:	5b                   	pop    %ebx
 8048ce6:	5e                   	pop    %esi
 8048ce7:	5f                   	pop    %edi
 8048ce8:	5d                   	pop    %ebp
 8048ce9:	c3                   	ret    

08048cea <getbufn>:
 8048cea:	55                   	push   %ebp
 8048ceb:	89 e5                	mov    %esp,%ebp
 8048ced:	81 ec 18 02 00 00    	sub    $0x218,%esp
 8048cf3:	8d 85 f8 fd ff ff    	lea    -0x208(%ebp),%eax
 8048cf9:	89 04 24             	mov    %eax,(%esp)
 8048cfc:	e8 49 ff ff ff       	call   8048c4a <Gets>
 8048d01:	b8 01 00 00 00       	mov    $0x1,%eax
 8048d06:	c9                   	leave  
 8048d07:	c3                   	ret    

08048d08 <testn>:
 8048d08:	55                   	push   %ebp
 8048d09:	89 e5                	mov    %esp,%ebp
 8048d0b:	83 ec 28             	sub    $0x28,%esp
 8048d0e:	c7 45 f4 ef be ad de 	movl   $0xdeadbeef,-0xc(%ebp)
 8048d15:	e8 d0 ff ff ff       	call   8048cea <getbufn>
 8048d1a:	8b 55 f4             	mov    -0xc(%ebp),%edx
 8048d1d:	81 fa ef be ad de    	cmp    $0xdeadbeef,%edx
 8048d23:	74 0e                	je     8048d33 <testn+0x2b>
 8048d25:	c7 04 24 3c a2 04 08 	movl   $0x804a23c,(%esp)
 8048d2c:	e8 13 fc ff ff       	call   8048944 <puts@plt>
 8048d31:	eb 46                	jmp    8048d79 <testn+0x71>
 8048d33:	3b 05 18 d1 04 08    	cmp    0x804d118,%eax
 8048d39:	75 26                	jne    8048d61 <testn+0x59>
 8048d3b:	89 44 24 08          	mov    %eax,0x8(%esp)
 8048d3f:	c7 44 24 04 68 a2 04 	movl   $0x804a268,0x4(%esp)
 8048d46:	08 
 8048d47:	c7 04 24 01 00 00 00 	movl   $0x1,(%esp)
 8048d4e:	e8 e1 fa ff ff       	call   8048834 <__printf_chk@plt>
 8048d53:	c7 04 24 04 00 00 00 	movl   $0x4,(%esp)
 8048d5a:	e8 2a 05 00 00       	call   8049289 <validate>
 8048d5f:	eb 18                	jmp    8048d79 <testn+0x71>
 8048d61:	89 44 24 08          	mov    %eax,0x8(%esp)
 8048d65:	c7 44 24 04 9a a0 04 	movl   $0x804a09a,0x4(%esp)
 8048d6c:	08 
 8048d6d:	c7 04 24 01 00 00 00 	movl   $0x1,(%esp)
 8048d74:	e8 bb fa ff ff       	call   8048834 <__printf_chk@plt>
 8048d79:	c9                   	leave  
 8048d7a:	c3                   	ret    

08048d7b <getbuf>:
 8048d7b:	55                   	push   %ebp
 8048d7c:	89 e5                	mov    %esp,%ebp
 8048d7e:	83 ec 38             	sub    $0x38,%esp
 8048d81:	8d 45 d8             	lea    -0x28(%ebp),%eax
 8048d84:	89 04 24             	mov    %eax,(%esp)
 8048d87:	e8 be fe ff ff       	call   8048c4a <Gets>
 8048d8c:	b8 01 00 00 00       	mov    $0x1,%eax
 8048d91:	c9                   	leave  
 8048d92:	c3                   	ret    

08048d93 <test>:
 8048d93:	55                   	push   %ebp
 8048d94:	89 e5                	mov    %esp,%ebp
 8048d96:	83 ec 28             	sub    $0x28,%esp
 8048d99:	c7 45 f4 ef be ad de 	movl   $0xdeadbeef,-0xc(%ebp)
 8048da0:	e8 d6 ff ff ff       	call   8048d7b <getbuf>
 8048da5:	8b 55 f4             	mov    -0xc(%ebp),%edx
 8048da8:	81 fa ef be ad de    	cmp    $0xdeadbeef,%edx
 8048dae:	74 0e                	je     8048dbe <test+0x2b>
 8048db0:	c7 04 24 3c a2 04 08 	movl   $0x804a23c,(%esp)
 8048db7:	e8 88 fb ff ff       	call   8048944 <puts@plt>
 8048dbc:	eb 46                	jmp    8048e04 <test+0x71>
 8048dbe:	3b 05 18 d1 04 08    	cmp    0x804d118,%eax
 8048dc4:	75 26                	jne    8048dec <test+0x59>
 8048dc6:	89 44 24 08          	mov    %eax,0x8(%esp)
 8048dca:	c7 44 24 04 b6 a0 04 	movl   $0x804a0b6,0x4(%esp)
 8048dd1:	08 
 8048dd2:	c7 04 24 01 00 00 00 	movl   $0x1,(%esp)
 8048dd9:	e8 56 fa ff ff       	call   8048834 <__printf_chk@plt>
 8048dde:	c7 04 24 03 00 00 00 	movl   $0x3,(%esp)
 8048de5:	e8 9f 04 00 00       	call   8049289 <validate>
 8048dea:	eb 18                	jmp    8048e04 <test+0x71>
 8048dec:	89 44 24 08          	mov    %eax,0x8(%esp)
 8048df0:	c7 44 24 04 d3 a0 04 	movl   $0x804a0d3,0x4(%esp)
 8048df7:	08 
 8048df8:	c7 04 24 01 00 00 00 	movl   $0x1,(%esp)
 8048dff:	e8 30 fa ff ff       	call   8048834 <__printf_chk@plt>
 8048e04:	c9                   	leave  
 8048e05:	c3                   	ret    

08048e06 <launch>:
 8048e06:	55                   	push   %ebp
 8048e07:	89 e5                	mov    %esp,%ebp
 8048e09:	53                   	push   %ebx
 8048e0a:	83 ec 54             	sub    $0x54,%esp
 8048e0d:	89 c3                	mov    %eax,%ebx
 8048e0f:	8d 45 b8             	lea    -0x48(%ebp),%eax
 8048e12:	25 f8 3f 00 00       	and    $0x3ff8,%eax
 8048e17:	01 c2                	add    %eax,%edx
 8048e19:	8d 42 1e             	lea    0x1e(%edx),%eax
 8048e1c:	83 e0 f0             	and    $0xfffffff0,%eax
 8048e1f:	29 c4                	sub    %eax,%esp
 8048e21:	8d 44 24 1b          	lea    0x1b(%esp),%eax
 8048e25:	83 e0 f0             	and    $0xfffffff0,%eax
 8048e28:	89 54 24 08          	mov    %edx,0x8(%esp)
 8048e2c:	c7 44 24 04 f4 00 00 	movl   $0xf4,0x4(%esp)
 8048e33:	00 
 8048e34:	89 04 24             	mov    %eax,(%esp)
 8048e37:	e8 28 fa ff ff       	call   8048864 <memset@plt>
 8048e3c:	c7 44 24 04 ee a0 04 	movl   $0x804a0ee,0x4(%esp)
 8048e43:	08 
 8048e44:	c7 04 24 01 00 00 00 	movl   $0x1,(%esp)
 8048e4b:	e8 e4 f9 ff ff       	call   8048834 <__printf_chk@plt>
 8048e50:	85 db                	test   %ebx,%ebx
 8048e52:	74 07                	je     8048e5b <launch+0x55>
 8048e54:	e8 af fe ff ff       	call   8048d08 <testn>
 8048e59:	eb 0a                	jmp    8048e65 <launch+0x5f>
 8048e5b:	90                   	nop
 8048e5c:	8d 74 26 00          	lea    0x0(%esi,%eiz,1),%esi
 8048e60:	e8 2e ff ff ff       	call   8048d93 <test>
 8048e65:	83 3d 1c d1 04 08 00 	cmpl   $0x0,0x804d11c
 8048e6c:	75 16                	jne    8048e84 <launch+0x7e>
 8048e6e:	c7 04 24 2d a0 04 08 	movl   $0x804a02d,(%esp)
 8048e75:	e8 ca fa ff ff       	call   8048944 <puts@plt>
 8048e7a:	c7 05 1c d1 04 08 00 	movl   $0x0,0x804d11c
 8048e81:	00 00 00 
 8048e84:	8b 5d fc             	mov    -0x4(%ebp),%ebx
 8048e87:	c9                   	leave  
 8048e88:	c3                   	ret    

08048e89 <launcher>:
 8048e89:	55                   	push   %ebp
 8048e8a:	89 e5                	mov    %esp,%ebp
 8048e8c:	53                   	push   %ebx
 8048e8d:	83 ec 24             	sub    $0x24,%esp
 8048e90:	8b 45 08             	mov    0x8(%ebp),%eax
 8048e93:	a3 28 d1 04 08       	mov    %eax,0x804d128
 8048e98:	8b 45 0c             	mov    0xc(%ebp),%eax
 8048e9b:	a3 2c d1 04 08       	mov    %eax,0x804d12c
 8048ea0:	c7 44 24 14 00 00 00 	movl   $0x0,0x14(%esp)
 8048ea7:	00 
 8048ea8:	c7 44 24 10 00 00 00 	movl   $0x0,0x10(%esp)
 8048eaf:	00 
 8048eb0:	c7 44 24 0c 22 01 00 	movl   $0x122,0xc(%esp)
 8048eb7:	00 
 8048eb8:	c7 44 24 08 07 00 00 	movl   $0x7,0x8(%esp)
 8048ebf:	00 
 8048ec0:	c7 44 24 04 00 00 10 	movl   $0x100000,0x4(%esp)
 8048ec7:	00 
 8048ec8:	c7 04 24 00 60 58 55 	movl   $0x55586000,(%esp)
 8048ecf:	e8 00 f9 ff ff       	call   80487d4 <mmap@plt>
 8048ed4:	89 c3                	mov    %eax,%ebx
 8048ed6:	83 f8 ff             	cmp    $0xffffffff,%eax
 8048ed9:	75 31                	jne    8048f0c <launcher+0x83>
 8048edb:	a1 e0 d0 04 08       	mov    0x804d0e0,%eax
 8048ee0:	89 44 24 0c          	mov    %eax,0xc(%esp)
 8048ee4:	c7 44 24 08 47 00 00 	movl   $0x47,0x8(%esp)
 8048eeb:	00 
 8048eec:	c7 44 24 04 01 00 00 	movl   $0x1,0x4(%esp)
 8048ef3:	00 
 8048ef4:	c7 04 24 88 a2 04 08 	movl   $0x804a288,(%esp)
 8048efb:	e8 24 fa ff ff       	call   8048924 <fwrite@plt>
 8048f00:	c7 04 24 01 00 00 00 	movl   $0x1,(%esp)
 8048f07:	e8 a8 fa ff ff       	call   80489b4 <exit@plt>
 8048f0c:	8d 90 f8 ff 0f 00    	lea    0xffff8(%eax),%edx
 8048f12:	89 15 44 dd 04 08    	mov    %edx,0x804dd44
 8048f18:	89 e0                	mov    %esp,%eax
 8048f1a:	89 d4                	mov    %edx,%esp
 8048f1c:	89 c2                	mov    %eax,%edx
 8048f1e:	89 15 30 d1 04 08    	mov    %edx,0x804d130
 8048f24:	8b 15 2c d1 04 08    	mov    0x804d12c,%edx
 8048f2a:	a1 28 d1 04 08       	mov    0x804d128,%eax
 8048f2f:	e8 d2 fe ff ff       	call   8048e06 <launch>
 8048f34:	a1 30 d1 04 08       	mov    0x804d130,%eax
 8048f39:	89 c4                	mov    %eax,%esp
 8048f3b:	c7 44 24 04 00 00 10 	movl   $0x100000,0x4(%esp)
 8048f42:	00 
 8048f43:	89 1c 24             	mov    %ebx,(%esp)
 8048f46:	e8 29 fa ff ff       	call   8048974 <munmap@plt>
 8048f4b:	83 c4 24             	add    $0x24,%esp
 8048f4e:	5b                   	pop    %ebx
 8048f4f:	5d                   	pop    %ebp
 8048f50:	c3                   	ret    

08048f51 <main>:
 8048f51:	55                   	push   %ebp
 8048f52:	89 e5                	mov    %esp,%ebp
 8048f54:	83 e4 f0             	and    $0xfffffff0,%esp
 8048f57:	57                   	push   %edi
 8048f58:	56                   	push   %esi
 8048f59:	53                   	push   %ebx
 8048f5a:	83 ec 34             	sub    $0x34,%esp
 8048f5d:	8b 75 08             	mov    0x8(%ebp),%esi
 8048f60:	8b 5d 0c             	mov    0xc(%ebp),%ebx
 8048f63:	c7 44 24 04 14 8b 04 	movl   $0x8048b14,0x4(%esp)
 8048f6a:	08 
 8048f6b:	c7 04 24 0b 00 00 00 	movl   $0xb,(%esp)
 8048f72:	e8 8d f8 ff ff       	call   8048804 <signal@plt>
 8048f77:	c7 44 24 04 3e 8b 04 	movl   $0x8048b3e,0x4(%esp)
 8048f7e:	08 
 8048f7f:	c7 04 24 07 00 00 00 	movl   $0x7,(%esp)
 8048f86:	e8 79 f8 ff ff       	call   8048804 <signal@plt>
 8048f8b:	c7 44 24 04 ea 8a 04 	movl   $0x8048aea,0x4(%esp)
 8048f92:	08 
 8048f93:	c7 04 24 04 00 00 00 	movl   $0x4,(%esp)
 8048f9a:	e8 65 f8 ff ff       	call   8048804 <signal@plt>
 8048f9f:	a1 e4 d0 04 08       	mov    0x804d0e4,%eax
 8048fa4:	a3 14 d1 04 08       	mov    %eax,0x804d114
 8048fa9:	bf 01 00 00 00       	mov    $0x1,%edi
 8048fae:	c7 44 24 2c 00 00 00 	movl   $0x0,0x2c(%esp)
 8048fb5:	00 
 8048fb6:	eb 6d                	jmp    8049025 <main+0xd4>
 8048fb8:	3c 6e                	cmp    $0x6e,%al
 8048fba:	74 5c                	je     8049018 <main+0xc7>
 8048fbc:	3c 6e                	cmp    $0x6e,%al
 8048fbe:	7f 06                	jg     8048fc6 <main+0x75>
 8048fc0:	3c 68                	cmp    $0x68,%al
 8048fc2:	75 4b                	jne    804900f <main+0xbe>
 8048fc4:	eb 0e                	jmp    8048fd4 <main+0x83>
 8048fc6:	3c 73                	cmp    $0x73,%al
 8048fc8:	74 39                	je     8049003 <main+0xb2>
 8048fca:	3c 75                	cmp    $0x75,%al
 8048fcc:	8d 74 26 00          	lea    0x0(%esi,%eiz,1),%esi
 8048fd0:	75 3d                	jne    804900f <main+0xbe>
 8048fd2:	eb 0e                	jmp    8048fe2 <main+0x91>
 8048fd4:	8b 03                	mov    (%ebx),%eax
 8048fd6:	e8 b5 fa ff ff       	call   8048a90 <usage>
 8048fdb:	90                   	nop
 8048fdc:	8d 74 26 00          	lea    0x0(%esi,%eiz,1),%esi
 8048fe0:	eb 43                	jmp    8049025 <main+0xd4>
 8048fe2:	a1 00 d1 04 08       	mov    0x804d100,%eax
 8048fe7:	89 04 24             	mov    %eax,(%esp)
 8048fea:	e8 b5 f9 ff ff       	call   80489a4 <__strdup@plt>
 8048fef:	a3 0c d1 04 08       	mov    %eax,0x804d10c
 8048ff4:	89 04 24             	mov    %eax,(%esp)
 8048ff7:	e8 ec 0e 00 00       	call   8049ee8 <gencookie>
 8048ffc:	a3 18 d1 04 08       	mov    %eax,0x804d118
 8049001:	eb 22                	jmp    8049025 <main+0xd4>
 8049003:	c7 05 10 d1 04 08 01 	movl   $0x1,0x804d110
 804900a:	00 00 00 
 804900d:	eb 16                	jmp    8049025 <main+0xd4>
 804900f:	8b 03                	mov    (%ebx),%eax
 8049011:	e8 7a fa ff ff       	call   8048a90 <usage>
 8049016:	eb 0d                	jmp    8049025 <main+0xd4>
 8049018:	bf 05 00 00 00       	mov    $0x5,%edi
 804901d:	c7 44 24 2c 01 00 00 	movl   $0x1,0x2c(%esp)
 8049024:	00 
 8049025:	c7 44 24 08 fb a0 04 	movl   $0x804a0fb,0x8(%esp)
 804902c:	08 
 804902d:	89 5c 24 04          	mov    %ebx,0x4(%esp)
 8049031:	89 34 24             	mov    %esi,(%esp)
 8049034:	e8 8b f8 ff ff       	call   80488c4 <getopt@plt>
 8049039:	3c ff                	cmp    $0xff,%al
 804903b:	0f 85 77 ff ff ff    	jne    8048fb8 <main+0x67>
 8049041:	83 3d 0c d1 04 08 00 	cmpl   $0x0,0x804d10c
 8049048:	75 21                	jne    804906b <main+0x11a>
 804904a:	8b 03                	mov    (%ebx),%eax
 804904c:	89 44 24 08          	mov    %eax,0x8(%esp)
 8049050:	c7 44 24 04 d0 a2 04 	movl   $0x804a2d0,0x4(%esp)
 8049057:	08 
 8049058:	c7 04 24 01 00 00 00 	movl   $0x1,(%esp)
 804905f:	e8 d0 f7 ff ff       	call   8048834 <__printf_chk@plt>
 8049064:	8b 03                	mov    (%ebx),%eax
 8049066:	e8 25 fa ff ff       	call   8048a90 <usage>
 804906b:	e8 ec 00 00 00       	call   804915c <initialize_bomb>
 8049070:	a1 0c d1 04 08       	mov    0x804d10c,%eax
 8049075:	89 44 24 08          	mov    %eax,0x8(%esp)
 8049079:	c7 44 24 04 01 a1 04 	movl   $0x804a101,0x4(%esp)
 8049080:	08 
 8049081:	c7 04 24 01 00 00 00 	movl   $0x1,(%esp)
 8049088:	e8 a7 f7 ff ff       	call   8048834 <__printf_chk@plt>
 804908d:	a1 18 d1 04 08       	mov    0x804d118,%eax
 8049092:	89 44 24 08          	mov    %eax,0x8(%esp)
 8049096:	c7 44 24 04 0d a1 04 	movl   $0x804a10d,0x4(%esp)
 804909d:	08 
 804909e:	c7 04 24 01 00 00 00 	movl   $0x1,(%esp)
 80490a5:	e8 8a f7 ff ff       	call   8048834 <__printf_chk@plt>
 80490aa:	a1 18 d1 04 08       	mov    0x804d118,%eax
 80490af:	89 04 24             	mov    %eax,(%esp)
 80490b2:	e8 4d f8 ff ff       	call   8048904 <srandom@plt>
 80490b7:	e8 28 f7 ff ff       	call   80487e4 <random@plt>
 80490bc:	25 f8 0f 00 00       	and    $0xff8,%eax
 80490c1:	89 44 24 28          	mov    %eax,0x28(%esp)
 80490c5:	89 7c 24 20          	mov    %edi,0x20(%esp)
 80490c9:	c7 44 24 04 04 00 00 	movl   $0x4,0x4(%esp)
 80490d0:	00 
 80490d1:	89 3c 24             	mov    %edi,(%esp)
 80490d4:	e8 6b f7 ff ff       	call   8048844 <calloc@plt>
 80490d9:	89 c6                	mov    %eax,%esi
 80490db:	8d 47 fe             	lea    -0x2(%edi),%eax
 80490de:	89 44 24 24          	mov    %eax,0x24(%esp)
 80490e2:	85 c0                	test   %eax,%eax
 80490e4:	7e 21                	jle    8049107 <main+0x1b6>
 80490e6:	bb 00 00 00 00       	mov    $0x0,%ebx
 80490eb:	89 7c 24 1c          	mov    %edi,0x1c(%esp)
 80490ef:	89 c7                	mov    %eax,%edi
 80490f1:	e8 ee f6 ff ff       	call   80487e4 <random@plt>
 80490f6:	83 e0 38             	and    $0x38,%eax
 80490f9:	89 04 9e             	mov    %eax,(%esi,%ebx,4)
 80490fc:	83 c3 01             	add    $0x1,%ebx
 80490ff:	39 fb                	cmp    %edi,%ebx
 8049101:	7c ee                	jl     80490f1 <main+0x1a0>
 8049103:	8b 7c 24 1c          	mov    0x1c(%esp),%edi
 8049107:	83 ff 01             	cmp    $0x1,%edi
 804910a:	7e 0c                	jle    8049118 <main+0x1c7>
 804910c:	8b 44 24 20          	mov    0x20(%esp),%eax
 8049110:	c7 44 86 f8 38 00 00 	movl   $0x38,-0x8(%esi,%eax,4)
 8049117:	00 
 8049118:	8b 44 24 20          	mov    0x20(%esp),%eax
 804911c:	c7 44 86 fc 00 00 00 	movl   $0x0,-0x4(%esi,%eax,4)
 8049123:	00 
 8049124:	85 ff                	test   %edi,%edi
 8049126:	7e 23                	jle    804914b <main+0x1fa>
 8049128:	bb 00 00 00 00       	mov    $0x0,%ebx
 804912d:	8b 44 24 28          	mov    0x28(%esp),%eax
 8049131:	03 04 9e             	add    (%esi,%ebx,4),%eax
 8049134:	89 44 24 04          	mov    %eax,0x4(%esp)
 8049138:	8b 44 24 2c          	mov    0x2c(%esp),%eax
 804913c:	89 04 24             	mov    %eax,(%esp)
 804913f:	e8 45 fd ff ff       	call   8048e89 <launcher>
 8049144:	83 c3 01             	add    $0x1,%ebx
 8049147:	39 fb                	cmp    %edi,%ebx
 8049149:	7c e2                	jl     804912d <main+0x1dc>
 804914b:	b8 00 00 00 00       	mov    $0x0,%eax
 8049150:	83 c4 34             	add    $0x34,%esp
 8049153:	5b                   	pop    %ebx
 8049154:	5e                   	pop    %esi
 8049155:	5f                   	pop    %edi
 8049156:	89 ec                	mov    %ebp,%esp
 8049158:	5d                   	pop    %ebp
 8049159:	c3                   	ret    
 804915a:	90                   	nop
 804915b:	90                   	nop

0804915c <initialize_bomb>:
 804915c:	55                   	push   %ebp
 804915d:	89 e5                	mov    %esp,%ebp
 804915f:	56                   	push   %esi
 8049160:	53                   	push   %ebx
 8049161:	81 ec 10 24 00 00    	sub    $0x2410,%esp
 8049167:	83 3d 10 d1 04 08 00 	cmpl   $0x0,0x804d110
 804916e:	0f 84 0b 01 00 00    	je     804927f <initialize_bomb+0x123>
 8049174:	c7 44 24 04 00 04 00 	movl   $0x400,0x4(%esp)
 804917b:	00 
 804917c:	8d 85 f8 fb ff ff    	lea    -0x408(%ebp),%eax
 8049182:	89 04 24             	mov    %eax,(%esp)
 8049185:	e8 aa f7 ff ff       	call   8048934 <gethostname@plt>
 804918a:	85 c0                	test   %eax,%eax
 804918c:	75 19                	jne    80491a7 <initialize_bomb+0x4b>
 804918e:	a1 c0 c0 04 08       	mov    0x804c0c0,%eax
 8049193:	bb 00 00 00 00       	mov    $0x0,%ebx
 8049198:	8d b5 f8 fb ff ff    	lea    -0x408(%ebp),%esi
 804919e:	85 c0                	test   %eax,%eax
 80491a0:	75 1d                	jne    80491bf <initialize_bomb+0x63>
 80491a2:	e9 ab 00 00 00       	jmp    8049252 <initialize_bomb+0xf6>
 80491a7:	c7 04 24 0c a3 04 08 	movl   $0x804a30c,(%esp)
 80491ae:	e8 91 f7 ff ff       	call   8048944 <puts@plt>
 80491b3:	c7 04 24 08 00 00 00 	movl   $0x8,(%esp)
 80491ba:	e8 f5 f7 ff ff       	call   80489b4 <exit@plt>
 80491bf:	89 74 24 04          	mov    %esi,0x4(%esp)
 80491c3:	89 04 24             	mov    %eax,(%esp)
 80491c6:	e8 29 f7 ff ff       	call   80488f4 <strcasecmp@plt>
 80491cb:	85 c0                	test   %eax,%eax
 80491cd:	74 10                	je     80491df <initialize_bomb+0x83>
 80491cf:	83 c3 01             	add    $0x1,%ebx
 80491d2:	8b 04 9d c0 c0 04 08 	mov    0x804c0c0(,%ebx,4),%eax
 80491d9:	85 c0                	test   %eax,%eax
 80491db:	75 e2                	jne    80491bf <initialize_bomb+0x63>
 80491dd:	eb 73                	jmp    8049252 <initialize_bomb+0xf6>
 80491df:	8d 85 f8 db ff ff    	lea    -0x2408(%ebp),%eax
 80491e5:	89 04 24             	mov    %eax,(%esp)
 80491e8:	e8 21 0a 00 00       	call   8049c0e <init_driver>
 80491ed:	85 c0                	test   %eax,%eax
 80491ef:	79 53                	jns    8049244 <initialize_bomb+0xe8>
 80491f1:	eb 27                	jmp    804921a <initialize_bomb+0xbe>
 80491f3:	bb 00 00 00 00       	mov    $0x0,%ebx
 80491f8:	89 04 24             	mov    %eax,(%esp)
 80491fb:	e8 44 f7 ff ff       	call   8048944 <puts@plt>
 8049200:	83 c3 01             	add    $0x1,%ebx
 8049203:	8b 04 9d c0 c0 04 08 	mov    0x804c0c0(,%ebx,4),%eax
 804920a:	85 c0                	test   %eax,%eax
 804920c:	75 ea                	jne    80491f8 <initialize_bomb+0x9c>
 804920e:	c7 04 24 08 00 00 00 	movl   $0x8,(%esp)
 8049215:	e8 9a f7 ff ff       	call   80489b4 <exit@plt>
 804921a:	8d 85 f8 db ff ff    	lea    -0x2408(%ebp),%eax
 8049220:	89 44 24 08          	mov    %eax,0x8(%esp)
 8049224:	c7 44 24 04 7a a4 04 	movl   $0x804a47a,0x4(%esp)
 804922b:	08 
 804922c:	c7 04 24 01 00 00 00 	movl   $0x1,(%esp)
 8049233:	e8 fc f5 ff ff       	call   8048834 <__printf_chk@plt>
 8049238:	c7 04 24 08 00 00 00 	movl   $0x8,(%esp)
 804923f:	e8 70 f7 ff ff       	call   80489b4 <exit@plt>
 8049244:	c7 04 24 1e 00 00 00 	movl   $0x1e,(%esp)
 804924b:	e8 84 09 00 00       	call   8049bd4 <init_timeout>
 8049250:	eb 2d                	jmp    804927f <initialize_bomb+0x123>
 8049252:	8d 85 f8 fb ff ff    	lea    -0x408(%ebp),%eax
 8049258:	89 44 24 08          	mov    %eax,0x8(%esp)
 804925c:	c7 44 24 04 44 a3 04 	movl   $0x804a344,0x4(%esp)
 8049263:	08 
 8049264:	c7 04 24 01 00 00 00 	movl   $0x1,(%esp)
 804926b:	e8 c4 f5 ff ff       	call   8048834 <__printf_chk@plt>
 8049270:	a1 c0 c0 04 08       	mov    0x804c0c0,%eax
 8049275:	85 c0                	test   %eax,%eax
 8049277:	0f 85 76 ff ff ff    	jne    80491f3 <initialize_bomb+0x97>
 804927d:	eb 8f                	jmp    804920e <initialize_bomb+0xb2>
 804927f:	81 c4 10 24 00 00    	add    $0x2410,%esp
 8049285:	5b                   	pop    %ebx
 8049286:	5e                   	pop    %esi
 8049287:	5d                   	pop    %ebp
 8049288:	c3                   	ret    

08049289 <validate>:
 8049289:	55                   	push   %ebp
 804928a:	89 e5                	mov    %esp,%ebp
 804928c:	81 ec 28 40 00 00    	sub    $0x4028,%esp
 8049292:	89 5d f8             	mov    %ebx,-0x8(%ebp)
 8049295:	89 7d fc             	mov    %edi,-0x4(%ebp)
 8049298:	8b 5d 08             	mov    0x8(%ebp),%ebx
 804929b:	83 3d 0c d1 04 08 00 	cmpl   $0x0,0x804d10c
 80492a2:	75 11                	jne    80492b5 <validate+0x2c>
 80492a4:	c7 04 24 80 a3 04 08 	movl   $0x804a380,(%esp)
 80492ab:	e8 94 f6 ff ff       	call   8048944 <puts@plt>
 80492b0:	e9 28 01 00 00       	jmp    80493dd <validate+0x154>
 80492b5:	83 fb 04             	cmp    $0x4,%ebx
 80492b8:	76 11                	jbe    80492cb <validate+0x42>
 80492ba:	c7 04 24 ac a3 04 08 	movl   $0x804a3ac,(%esp)
 80492c1:	e8 7e f6 ff ff       	call   8048944 <puts@plt>
 80492c6:	e9 12 01 00 00       	jmp    80493dd <validate+0x154>
 80492cb:	c7 05 1c d1 04 08 01 	movl   $0x1,0x804d11c
 80492d2:	00 00 00 
 80492d5:	8b 04 9d c0 d0 04 08 	mov    0x804d0c0(,%ebx,4),%eax
 80492dc:	83 e8 01             	sub    $0x1,%eax
 80492df:	89 04 9d c0 d0 04 08 	mov    %eax,0x804d0c0(,%ebx,4)
 80492e6:	85 c0                	test   %eax,%eax
 80492e8:	7e 11                	jle    80492fb <validate+0x72>
 80492ea:	c7 04 24 8f a4 04 08 	movl   $0x804a48f,(%esp)
 80492f1:	e8 4e f6 ff ff       	call   8048944 <puts@plt>
 80492f6:	e9 e2 00 00 00       	jmp    80493dd <validate+0x154>
 80492fb:	c7 04 24 9a a4 04 08 	movl   $0x804a49a,(%esp)
 8049302:	e8 3d f6 ff ff       	call   8048944 <puts@plt>
 8049307:	83 3d 10 d1 04 08 00 	cmpl   $0x0,0x804d110
 804930e:	0f 84 bd 00 00 00    	je     80493d1 <validate+0x148>
 8049314:	bf 40 d1 04 08       	mov    $0x804d140,%edi
 8049319:	b8 00 00 00 00       	mov    $0x0,%eax
 804931e:	b9 ff ff ff ff       	mov    $0xffffffff,%ecx
 8049323:	f2 ae                	repnz scas %es:(%edi),%al
 8049325:	f7 d1                	not    %ecx
 8049327:	83 c1 1f             	add    $0x1f,%ecx
 804932a:	81 f9 00 20 00 00    	cmp    $0x2000,%ecx
 8049330:	76 11                	jbe    8049343 <validate+0xba>
 8049332:	c7 04 24 d4 a3 04 08 	movl   $0x804a3d4,(%esp)
 8049339:	e8 06 f6 ff ff       	call   8048944 <puts@plt>
 804933e:	e9 9a 00 00 00       	jmp    80493dd <validate+0x154>
 8049343:	c7 44 24 18 40 d1 04 	movl   $0x804d140,0x18(%esp)
 804934a:	08 
 804934b:	a1 18 d1 04 08       	mov    0x804d118,%eax
 8049350:	89 44 24 14          	mov    %eax,0x14(%esp)
 8049354:	89 5c 24 10          	mov    %ebx,0x10(%esp)
 8049358:	c7 44 24 0c a0 a4 04 	movl   $0x804a4a0,0xc(%esp)
 804935f:	08 
 8049360:	c7 44 24 08 00 20 00 	movl   $0x2000,0x8(%esp)
 8049367:	00 
 8049368:	c7 44 24 04 01 00 00 	movl   $0x1,0x4(%esp)
 804936f:	00 
 8049370:	8d 9d f8 df ff ff    	lea    -0x2008(%ebp),%ebx
 8049376:	89 1c 24             	mov    %ebx,(%esp)
 8049379:	e8 e6 f5 ff ff       	call   8048964 <__sprintf_chk@plt>
 804937e:	8d 85 f8 bf ff ff    	lea    -0x4008(%ebp),%eax
 8049384:	89 44 24 0c          	mov    %eax,0xc(%esp)
 8049388:	c7 44 24 08 00 00 00 	movl   $0x0,0x8(%esp)
 804938f:	00 
 8049390:	89 5c 24 04          	mov    %ebx,0x4(%esp)
 8049394:	a1 0c d1 04 08       	mov    0x804d10c,%eax
 8049399:	89 04 24             	mov    %eax,(%esp)
 804939c:	e8 58 0a 00 00       	call   8049df9 <driver_post>
 80493a1:	85 c0                	test   %eax,%eax
 80493a3:	75 0e                	jne    80493b3 <validate+0x12a>
 80493a5:	c7 04 24 0c a4 04 08 	movl   $0x804a40c,(%esp)
 80493ac:	e8 93 f5 ff ff       	call   8048944 <puts@plt>
 80493b1:	eb 1e                	jmp    80493d1 <validate+0x148>
 80493b3:	8d 85 f8 bf ff ff    	lea    -0x4008(%ebp),%eax
 80493b9:	89 44 24 08          	mov    %eax,0x8(%esp)
 80493bd:	c7 44 24 04 3c a4 04 	movl   $0x804a43c,0x4(%esp)
 80493c4:	08 
 80493c5:	c7 04 24 01 00 00 00 	movl   $0x1,(%esp)
 80493cc:	e8 63 f4 ff ff       	call   8048834 <__printf_chk@plt>
 80493d1:	c7 04 24 a9 a4 04 08 	movl   $0x804a4a9,(%esp)
 80493d8:	e8 67 f5 ff ff       	call   8048944 <puts@plt>
 80493dd:	8b 5d f8             	mov    -0x8(%ebp),%ebx
 80493e0:	8b 7d fc             	mov    -0x4(%ebp),%edi
 80493e3:	89 ec                	mov    %ebp,%esp
 80493e5:	5d                   	pop    %ebp
 80493e6:	c3                   	ret    
 80493e7:	90                   	nop
 80493e8:	90                   	nop
 80493e9:	90                   	nop
 80493ea:	90                   	nop
 80493eb:	90                   	nop
 80493ec:	90                   	nop
 80493ed:	90                   	nop
 80493ee:	90                   	nop
 80493ef:	90                   	nop

080493f0 <rio_readlineb>:
 80493f0:	55                   	push   %ebp
 80493f1:	89 e5                	mov    %esp,%ebp
 80493f3:	57                   	push   %edi
 80493f4:	56                   	push   %esi
 80493f5:	53                   	push   %ebx
 80493f6:	83 ec 3c             	sub    $0x3c,%esp
 80493f9:	89 c3                	mov    %eax,%ebx
 80493fb:	89 4d cc             	mov    %ecx,-0x34(%ebp)
 80493fe:	89 55 d0             	mov    %edx,-0x30(%ebp)
 8049401:	c7 45 d4 01 00 00 00 	movl   $0x1,-0x2c(%ebp)
 8049408:	8d 78 0c             	lea    0xc(%eax),%edi
 804940b:	83 f9 01             	cmp    $0x1,%ecx
 804940e:	77 40                	ja     8049450 <rio_readlineb+0x60>
 8049410:	e9 a2 00 00 00       	jmp    80494b7 <rio_readlineb+0xc7>
 8049415:	c7 44 24 08 00 20 00 	movl   $0x2000,0x8(%esp)
 804941c:	00 
 804941d:	89 7c 24 04          	mov    %edi,0x4(%esp)
 8049421:	8b 03                	mov    (%ebx),%eax
 8049423:	89 04 24             	mov    %eax,(%esp)
 8049426:	e8 79 f4 ff ff       	call   80488a4 <read@plt>
 804942b:	89 43 04             	mov    %eax,0x4(%ebx)
 804942e:	85 c0                	test   %eax,%eax
 8049430:	79 13                	jns    8049445 <rio_readlineb+0x55>
 8049432:	e8 6d f3 ff ff       	call   80487a4 <__errno_location@plt>
 8049437:	83 38 04             	cmpl   $0x4,(%eax)
 804943a:	74 14                	je     8049450 <rio_readlineb+0x60>
 804943c:	8d 74 26 00          	lea    0x0(%esi,%eiz,1),%esi
 8049440:	e9 95 00 00 00       	jmp    80494da <rio_readlineb+0xea>
 8049445:	85 c0                	test   %eax,%eax
 8049447:	0f 84 94 00 00 00    	je     80494e1 <rio_readlineb+0xf1>
 804944d:	89 7b 08             	mov    %edi,0x8(%ebx)
 8049450:	8b 73 04             	mov    0x4(%ebx),%esi
 8049453:	85 f6                	test   %esi,%esi
 8049455:	7e be                	jle    8049415 <rio_readlineb+0x25>
 8049457:	85 f6                	test   %esi,%esi
 8049459:	0f 85 8c 00 00 00    	jne    80494eb <rio_readlineb+0xfb>
 804945f:	c7 44 24 0c 01 00 00 	movl   $0x1,0xc(%esp)
 8049466:	00 
 8049467:	89 74 24 08          	mov    %esi,0x8(%esp)
 804946b:	8b 43 08             	mov    0x8(%ebx),%eax
 804946e:	89 44 24 04          	mov    %eax,0x4(%esp)
 8049472:	8d 45 e7             	lea    -0x19(%ebp),%eax
 8049475:	89 04 24             	mov    %eax,(%esp)
 8049478:	e8 17 f4 ff ff       	call   8048894 <__memcpy_chk@plt>
 804947d:	01 73 08             	add    %esi,0x8(%ebx)
 8049480:	29 73 04             	sub    %esi,0x4(%ebx)
 8049483:	83 fe 01             	cmp    $0x1,%esi
 8049486:	75 15                	jne    804949d <rio_readlineb+0xad>
 8049488:	0f b6 45 e7          	movzbl -0x19(%ebp),%eax
 804948c:	8b 55 d0             	mov    -0x30(%ebp),%edx
 804948f:	88 02                	mov    %al,(%edx)
 8049491:	83 c2 01             	add    $0x1,%edx
 8049494:	89 55 d0             	mov    %edx,-0x30(%ebp)
 8049497:	3c 0a                	cmp    $0xa,%al
 8049499:	75 10                	jne    80494ab <rio_readlineb+0xbb>
 804949b:	eb 1a                	jmp    80494b7 <rio_readlineb+0xc7>
 804949d:	8b 45 d4             	mov    -0x2c(%ebp),%eax
 80494a0:	85 f6                	test   %esi,%esi
 80494a2:	75 1b                	jne    80494bf <rio_readlineb+0xcf>
 80494a4:	83 f8 01             	cmp    $0x1,%eax
 80494a7:	75 0e                	jne    80494b7 <rio_readlineb+0xc7>
 80494a9:	eb 1d                	jmp    80494c8 <rio_readlineb+0xd8>
 80494ab:	83 45 d4 01          	addl   $0x1,-0x2c(%ebp)
 80494af:	8b 45 d4             	mov    -0x2c(%ebp),%eax
 80494b2:	39 45 cc             	cmp    %eax,-0x34(%ebp)
 80494b5:	77 99                	ja     8049450 <rio_readlineb+0x60>
 80494b7:	8b 55 d0             	mov    -0x30(%ebp),%edx
 80494ba:	c6 02 00             	movb   $0x0,(%edx)
 80494bd:	eb 10                	jmp    80494cf <rio_readlineb+0xdf>
 80494bf:	c7 45 d4 ff ff ff ff 	movl   $0xffffffff,-0x2c(%ebp)
 80494c6:	eb 07                	jmp    80494cf <rio_readlineb+0xdf>
 80494c8:	c7 45 d4 00 00 00 00 	movl   $0x0,-0x2c(%ebp)
 80494cf:	8b 45 d4             	mov    -0x2c(%ebp),%eax
 80494d2:	83 c4 3c             	add    $0x3c,%esp
 80494d5:	5b                   	pop    %ebx
 80494d6:	5e                   	pop    %esi
 80494d7:	5f                   	pop    %edi
 80494d8:	5d                   	pop    %ebp
 80494d9:	c3                   	ret    
 80494da:	be ff ff ff ff       	mov    $0xffffffff,%esi
 80494df:	eb 05                	jmp    80494e6 <rio_readlineb+0xf6>
 80494e1:	be 00 00 00 00       	mov    $0x0,%esi
 80494e6:	8b 45 d4             	mov    -0x2c(%ebp),%eax
 80494e9:	eb b5                	jmp    80494a0 <rio_readlineb+0xb0>
 80494eb:	8b 43 08             	mov    0x8(%ebx),%eax
 80494ee:	0f b6 00             	movzbl (%eax),%eax
 80494f1:	88 45 e7             	mov    %al,-0x19(%ebp)
 80494f4:	83 43 08 01          	addl   $0x1,0x8(%ebx)
 80494f8:	83 6b 04 01          	subl   $0x1,0x4(%ebx)
 80494fc:	eb 8a                	jmp    8049488 <rio_readlineb+0x98>

080494fe <sigalrm_handler>:
 80494fe:	55                   	push   %ebp
 80494ff:	89 e5                	mov    %esp,%ebp
 8049501:	83 ec 18             	sub    $0x18,%esp
 8049504:	c7 44 24 0c 00 00 00 	movl   $0x0,0xc(%esp)
 804950b:	00 
 804950c:	c7 44 24 08 98 a5 04 	movl   $0x804a598,0x8(%esp)
 8049513:	08 
 8049514:	c7 44 24 04 01 00 00 	movl   $0x1,0x4(%esp)
 804951b:	00 
 804951c:	a1 e0 d0 04 08       	mov    0x804d0e0,%eax
 8049521:	89 04 24             	mov    %eax,(%esp)
 8049524:	e8 cb f2 ff ff       	call   80487f4 <__fprintf_chk@plt>
 8049529:	c7 04 24 01 00 00 00 	movl   $0x1,(%esp)
 8049530:	e8 7f f4 ff ff       	call   80489b4 <exit@plt>

08049535 <submitr>:
 8049535:	55                   	push   %ebp
 8049536:	89 e5                	mov    %esp,%ebp
 8049538:	57                   	push   %edi
 8049539:	56                   	push   %esi
 804953a:	53                   	push   %ebx
 804953b:	81 ec 6c a0 00 00    	sub    $0xa06c,%esp
 8049541:	c7 85 c8 7f ff ff 00 	movl   $0x0,-0x8038(%ebp)
 8049548:	00 00 00 
 804954b:	c7 44 24 08 00 00 00 	movl   $0x0,0x8(%esp)
 8049552:	00 
 8049553:	c7 44 24 04 01 00 00 	movl   $0x1,0x4(%esp)
 804955a:	00 
 804955b:	c7 04 24 02 00 00 00 	movl   $0x2,(%esp)
 8049562:	e8 4d f3 ff ff       	call   80488b4 <socket@plt>
 8049567:	89 85 b0 5f ff ff    	mov    %eax,-0xa050(%ebp)
 804956d:	85 c0                	test   %eax,%eax
 804956f:	79 1b                	jns    804958c <submitr+0x57>
 8049571:	b8 bc a5 04 08       	mov    $0x804a5bc,%eax
 8049576:	b9 26 00 00 00       	mov    $0x26,%ecx
 804957b:	8b 7d 20             	mov    0x20(%ebp),%edi
 804957e:	89 c6                	mov    %eax,%esi
 8049580:	f3 a4                	rep movsb %ds:(%esi),%es:(%edi)
 8049582:	b8 ff ff ff ff       	mov    $0xffffffff,%eax
 8049587:	e9 d2 05 00 00       	jmp    8049b5e <submitr+0x629>
 804958c:	8b 45 08             	mov    0x8(%ebp),%eax
 804958f:	89 04 24             	mov    %eax,(%esp)
 8049592:	e8 fd f3 ff ff       	call   8048994 <gethostbyname@plt>
 8049597:	85 c0                	test   %eax,%eax
 8049599:	75 29                	jne    80495c4 <submitr+0x8f>
 804959b:	b8 e4 a5 04 08       	mov    $0x804a5e4,%eax
 80495a0:	b9 2f 00 00 00       	mov    $0x2f,%ecx
 80495a5:	8b 7d 20             	mov    0x20(%ebp),%edi
 80495a8:	89 c6                	mov    %eax,%esi
 80495aa:	f3 a4                	rep movsb %ds:(%esi),%es:(%edi)
 80495ac:	8b 85 b0 5f ff ff    	mov    -0xa050(%ebp),%eax
 80495b2:	89 04 24             	mov    %eax,(%esp)
 80495b5:	e8 5a f3 ff ff       	call   8048914 <close@plt>
 80495ba:	b8 ff ff ff ff       	mov    $0xffffffff,%eax
 80495bf:	e9 9a 05 00 00       	jmp    8049b5e <submitr+0x629>
 80495c4:	8d 5d d8             	lea    -0x28(%ebp),%ebx
 80495c7:	c7 45 d8 00 00 00 00 	movl   $0x0,-0x28(%ebp)
 80495ce:	c7 45 dc 00 00 00 00 	movl   $0x0,-0x24(%ebp)
 80495d5:	c7 45 e0 00 00 00 00 	movl   $0x0,-0x20(%ebp)
 80495dc:	c7 45 e4 00 00 00 00 	movl   $0x0,-0x1c(%ebp)
 80495e3:	66 c7 45 d8 02 00    	movw   $0x2,-0x28(%ebp)
 80495e9:	c7 44 24 0c 0c 00 00 	movl   $0xc,0xc(%esp)
 80495f0:	00 
 80495f1:	8b 50 0c             	mov    0xc(%eax),%edx
 80495f4:	89 54 24 08          	mov    %edx,0x8(%esp)
 80495f8:	8b 40 10             	mov    0x10(%eax),%eax
 80495fb:	8b 00                	mov    (%eax),%eax
 80495fd:	89 44 24 04          	mov    %eax,0x4(%esp)
 8049601:	8d 45 dc             	lea    -0x24(%ebp),%eax
 8049604:	89 04 24             	mov    %eax,(%esp)
 8049607:	e8 78 f3 ff ff       	call   8048984 <__memmove_chk@plt>
 804960c:	0f b7 45 0c          	movzwl 0xc(%ebp),%eax
 8049610:	66 c1 c8 08          	ror    $0x8,%ax
 8049614:	66 89 45 da          	mov    %ax,-0x26(%ebp)
 8049618:	c7 44 24 08 10 00 00 	movl   $0x10,0x8(%esp)
 804961f:	00 
 8049620:	89 5c 24 04          	mov    %ebx,0x4(%esp)
 8049624:	8b 95 b0 5f ff ff    	mov    -0xa050(%ebp),%edx
 804962a:	89 14 24             	mov    %edx,(%esp)
 804962d:	e8 92 f1 ff ff       	call   80487c4 <connect@plt>
 8049632:	85 c0                	test   %eax,%eax
 8049634:	79 29                	jns    804965f <submitr+0x12a>
 8049636:	b8 14 a6 04 08       	mov    $0x804a614,%eax
 804963b:	b9 27 00 00 00       	mov    $0x27,%ecx
 8049640:	8b 7d 20             	mov    0x20(%ebp),%edi
 8049643:	89 c6                	mov    %eax,%esi
 8049645:	f3 a4                	rep movsb %ds:(%esi),%es:(%edi)
 8049647:	8b 85 b0 5f ff ff    	mov    -0xa050(%ebp),%eax
 804964d:	89 04 24             	mov    %eax,(%esp)
 8049650:	e8 bf f2 ff ff       	call   8048914 <close@plt>
 8049655:	b8 ff ff ff ff       	mov    $0xffffffff,%eax
 804965a:	e9 ff 04 00 00       	jmp    8049b5e <submitr+0x629>
 804965f:	ba ff ff ff ff       	mov    $0xffffffff,%edx
 8049664:	8b 7d 1c             	mov    0x1c(%ebp),%edi
 8049667:	b8 00 00 00 00       	mov    $0x0,%eax
 804966c:	89 d1                	mov    %edx,%ecx
 804966e:	f2 ae                	repnz scas %es:(%edi),%al
 8049670:	89 cb                	mov    %ecx,%ebx
 8049672:	f7 d3                	not    %ebx
 8049674:	8b 7d 10             	mov    0x10(%ebp),%edi
 8049677:	89 d1                	mov    %edx,%ecx
 8049679:	f2 ae                	repnz scas %es:(%edi),%al
 804967b:	89 8d b4 5f ff ff    	mov    %ecx,-0xa04c(%ebp)
 8049681:	8b 7d 14             	mov    0x14(%ebp),%edi
 8049684:	89 d1                	mov    %edx,%ecx
 8049686:	f2 ae                	repnz scas %es:(%edi),%al
 8049688:	89 ce                	mov    %ecx,%esi
 804968a:	f7 d6                	not    %esi
 804968c:	8b 7d 18             	mov    0x18(%ebp),%edi
 804968f:	89 d1                	mov    %edx,%ecx
 8049691:	f2 ae                	repnz scas %es:(%edi),%al
 8049693:	2b b5 b4 5f ff ff    	sub    -0xa04c(%ebp),%esi
 8049699:	29 ce                	sub    %ecx,%esi
 804969b:	8d 44 5b fd          	lea    -0x3(%ebx,%ebx,2),%eax
 804969f:	8d 44 06 7b          	lea    0x7b(%esi,%eax,1),%eax
 80496a3:	3d 00 20 00 00       	cmp    $0x2000,%eax
 80496a8:	76 7c                	jbe    8049726 <submitr+0x1f1>
 80496aa:	8b 75 20             	mov    0x20(%ebp),%esi
 80496ad:	c7 06 45 72 72 6f    	movl   $0x6f727245,(%esi)
 80496b3:	c7 46 04 72 3a 20 52 	movl   $0x52203a72,0x4(%esi)
 80496ba:	c7 46 08 65 73 75 6c 	movl   $0x6c757365,0x8(%esi)
 80496c1:	c7 46 0c 74 20 73 74 	movl   $0x74732074,0xc(%esi)
 80496c8:	c7 46 10 72 69 6e 67 	movl   $0x676e6972,0x10(%esi)
 80496cf:	c7 46 14 20 74 6f 6f 	movl   $0x6f6f7420,0x14(%esi)
 80496d6:	c7 46 18 20 6c 61 72 	movl   $0x72616c20,0x18(%esi)
 80496dd:	c7 46 1c 67 65 2e 20 	movl   $0x202e6567,0x1c(%esi)
 80496e4:	c7 46 20 49 6e 63 72 	movl   $0x72636e49,0x20(%esi)
 80496eb:	c7 46 24 65 61 73 65 	movl   $0x65736165,0x24(%esi)
 80496f2:	c7 46 28 20 53 55 42 	movl   $0x42555320,0x28(%esi)
 80496f9:	c7 46 2c 4d 49 54 52 	movl   $0x5254494d,0x2c(%esi)
 8049700:	c7 46 30 5f 4d 41 58 	movl   $0x58414d5f,0x30(%esi)
 8049707:	c7 46 34 42 55 46 00 	movl   $0x465542,0x34(%esi)
 804970e:	8b bd b0 5f ff ff    	mov    -0xa050(%ebp),%edi
 8049714:	89 3c 24             	mov    %edi,(%esp)
 8049717:	e8 f8 f1 ff ff       	call   8048914 <close@plt>
 804971c:	b8 ff ff ff ff       	mov    $0xffffffff,%eax
 8049721:	e9 38 04 00 00       	jmp    8049b5e <submitr+0x629>
 8049726:	8d 95 cc 9f ff ff    	lea    -0x6034(%ebp),%edx
 804972c:	b9 00 08 00 00       	mov    $0x800,%ecx
 8049731:	b8 00 00 00 00       	mov    $0x0,%eax
 8049736:	89 d7                	mov    %edx,%edi
 8049738:	f3 ab                	rep stos %eax,%es:(%edi)
 804973a:	8b 7d 1c             	mov    0x1c(%ebp),%edi
 804973d:	b9 ff ff ff ff       	mov    $0xffffffff,%ecx
 8049742:	f2 ae                	repnz scas %es:(%edi),%al
 8049744:	f7 d1                	not    %ecx
 8049746:	89 cf                	mov    %ecx,%edi
 8049748:	83 ef 01             	sub    $0x1,%edi
 804974b:	0f 84 18 04 00 00    	je     8049b69 <submitr+0x634>
 8049751:	89 d6                	mov    %edx,%esi
 8049753:	bb 00 00 00 00       	mov    $0x0,%ebx
 8049758:	89 bd b4 5f ff ff    	mov    %edi,-0xa04c(%ebp)
 804975e:	8b 7d 1c             	mov    0x1c(%ebp),%edi
 8049761:	0f b6 04 1f          	movzbl (%edi,%ebx,1),%eax
 8049765:	3c 2a                	cmp    $0x2a,%al
 8049767:	74 24                	je     804978d <submitr+0x258>
 8049769:	3c 2d                	cmp    $0x2d,%al
 804976b:	74 20                	je     804978d <submitr+0x258>
 804976d:	3c 2e                	cmp    $0x2e,%al
 804976f:	74 1c                	je     804978d <submitr+0x258>
 8049771:	3c 5f                	cmp    $0x5f,%al
 8049773:	74 18                	je     804978d <submitr+0x258>
 8049775:	8d 50 d0             	lea    -0x30(%eax),%edx
 8049778:	80 fa 09             	cmp    $0x9,%dl
 804977b:	76 10                	jbe    804978d <submitr+0x258>
 804977d:	8d 50 bf             	lea    -0x41(%eax),%edx
 8049780:	80 fa 19             	cmp    $0x19,%dl
 8049783:	76 08                	jbe    804978d <submitr+0x258>
 8049785:	8d 50 9f             	lea    -0x61(%eax),%edx
 8049788:	80 fa 19             	cmp    $0x19,%dl
 804978b:	77 07                	ja     8049794 <submitr+0x25f>
 804978d:	88 06                	mov    %al,(%esi)
 804978f:	83 c6 01             	add    $0x1,%esi
 8049792:	eb 65                	jmp    80497f9 <submitr+0x2c4>
 8049794:	3c 20                	cmp    $0x20,%al
 8049796:	75 08                	jne    80497a0 <submitr+0x26b>
 8049798:	c6 06 2b             	movb   $0x2b,(%esi)
 804979b:	83 c6 01             	add    $0x1,%esi
 804979e:	eb 59                	jmp    80497f9 <submitr+0x2c4>
 80497a0:	8d 50 e0             	lea    -0x20(%eax),%edx
 80497a3:	80 fa 5f             	cmp    $0x5f,%dl
 80497a6:	76 04                	jbe    80497ac <submitr+0x277>
 80497a8:	3c 09                	cmp    $0x9,%al
 80497aa:	75 61                	jne    804980d <submitr+0x2d8>
 80497ac:	0f b6 c0             	movzbl %al,%eax
 80497af:	89 44 24 10          	mov    %eax,0x10(%esp)
 80497b3:	c7 44 24 0c c0 a7 04 	movl   $0x804a7c0,0xc(%esp)
 80497ba:	08 
 80497bb:	c7 44 24 08 08 00 00 	movl   $0x8,0x8(%esp)
 80497c2:	00 
 80497c3:	c7 44 24 04 01 00 00 	movl   $0x1,0x4(%esp)
 80497ca:	00 
 80497cb:	8d 85 c0 5f ff ff    	lea    -0xa040(%ebp),%eax
 80497d1:	89 04 24             	mov    %eax,(%esp)
 80497d4:	e8 8b f1 ff ff       	call   8048964 <__sprintf_chk@plt>
 80497d9:	0f b6 85 c0 5f ff ff 	movzbl -0xa040(%ebp),%eax
 80497e0:	88 06                	mov    %al,(%esi)
 80497e2:	0f b6 85 c1 5f ff ff 	movzbl -0xa03f(%ebp),%eax
 80497e9:	88 46 01             	mov    %al,0x1(%esi)
 80497ec:	0f b6 85 c2 5f ff ff 	movzbl -0xa03e(%ebp),%eax
 80497f3:	88 46 02             	mov    %al,0x2(%esi)
 80497f6:	83 c6 03             	add    $0x3,%esi
 80497f9:	83 c3 01             	add    $0x1,%ebx
 80497fc:	3b 9d b4 5f ff ff    	cmp    -0xa04c(%ebp),%ebx
 8049802:	0f 85 59 ff ff ff    	jne    8049761 <submitr+0x22c>
 8049808:	e9 5c 03 00 00       	jmp    8049b69 <submitr+0x634>
 804980d:	b8 3c a6 04 08       	mov    $0x804a63c,%eax
 8049812:	b9 43 00 00 00       	mov    $0x43,%ecx
 8049817:	8b 7d 20             	mov    0x20(%ebp),%edi
 804981a:	89 c6                	mov    %eax,%esi
 804981c:	f3 a4                	rep movsb %ds:(%esi),%es:(%edi)
 804981e:	8b 85 b0 5f ff ff    	mov    -0xa050(%ebp),%eax
 8049824:	89 04 24             	mov    %eax,(%esp)
 8049827:	e8 e8 f0 ff ff       	call   8048914 <close@plt>
 804982c:	b8 ff ff ff ff       	mov    $0xffffffff,%eax
 8049831:	e9 28 03 00 00       	jmp    8049b5e <submitr+0x629>
 8049836:	01 c6                	add    %eax,%esi
 8049838:	eb 0c                	jmp    8049846 <submitr+0x311>
 804983a:	89 bd b4 5f ff ff    	mov    %edi,-0xa04c(%ebp)
 8049840:	8b bd b0 5f ff ff    	mov    -0xa050(%ebp),%edi
 8049846:	89 5c 24 08          	mov    %ebx,0x8(%esp)
 804984a:	89 74 24 04          	mov    %esi,0x4(%esp)
 804984e:	89 3c 24             	mov    %edi,(%esp)
 8049851:	e8 fe ef ff ff       	call   8048854 <write@plt>
 8049856:	85 c0                	test   %eax,%eax
 8049858:	7f 0f                	jg     8049869 <submitr+0x334>
 804985a:	e8 45 ef ff ff       	call   80487a4 <__errno_location@plt>
 804985f:	83 38 04             	cmpl   $0x4,(%eax)
 8049862:	75 13                	jne    8049877 <submitr+0x342>
 8049864:	b8 00 00 00 00       	mov    $0x0,%eax
 8049869:	29 c3                	sub    %eax,%ebx
 804986b:	75 c9                	jne    8049836 <submitr+0x301>
 804986d:	8b bd b4 5f ff ff    	mov    -0xa04c(%ebp),%edi
 8049873:	85 ff                	test   %edi,%edi
 8049875:	79 63                	jns    80498da <submitr+0x3a5>
 8049877:	8b 7d 20             	mov    0x20(%ebp),%edi
 804987a:	be 80 a6 04 08       	mov    $0x804a680,%esi
 804987f:	b8 2c 00 00 00       	mov    $0x2c,%eax
 8049884:	f7 c7 01 00 00 00    	test   $0x1,%edi
 804988a:	74 03                	je     804988f <submitr+0x35a>
 804988c:	a4                   	movsb  %ds:(%esi),%es:(%edi)
 804988d:	b0 2b                	mov    $0x2b,%al
 804988f:	f7 c7 02 00 00 00    	test   $0x2,%edi
 8049895:	74 05                	je     804989c <submitr+0x367>
 8049897:	66 a5                	movsw  %ds:(%esi),%es:(%edi)
 8049899:	83 e8 02             	sub    $0x2,%eax
 804989c:	89 c1                	mov    %eax,%ecx
 804989e:	c1 e9 02             	shr    $0x2,%ecx
 80498a1:	f3 a5                	rep movsl %ds:(%esi),%es:(%edi)
 80498a3:	ba 00 00 00 00       	mov    $0x0,%edx
 80498a8:	a8 02                	test   $0x2,%al
 80498aa:	74 0b                	je     80498b7 <submitr+0x382>
 80498ac:	0f b7 16             	movzwl (%esi),%edx
 80498af:	66 89 17             	mov    %dx,(%edi)
 80498b2:	ba 02 00 00 00       	mov    $0x2,%edx
 80498b7:	a8 01                	test   $0x1,%al
 80498b9:	74 07                	je     80498c2 <submitr+0x38d>
 80498bb:	0f b6 04 16          	movzbl (%esi,%edx,1),%eax
 80498bf:	88 04 17             	mov    %al,(%edi,%edx,1)
 80498c2:	8b 95 b0 5f ff ff    	mov    -0xa050(%ebp),%edx
 80498c8:	89 14 24             	mov    %edx,(%esp)
 80498cb:	e8 44 f0 ff ff       	call   8048914 <close@plt>
 80498d0:	b8 ff ff ff ff       	mov    $0xffffffff,%eax
 80498d5:	e9 84 02 00 00       	jmp    8049b5e <submitr+0x629>
 80498da:	8b 8d b0 5f ff ff    	mov    -0xa050(%ebp),%ecx
 80498e0:	89 8d cc df ff ff    	mov    %ecx,-0x2034(%ebp)
 80498e6:	c7 85 d0 df ff ff 00 	movl   $0x0,-0x2030(%ebp)
 80498ed:	00 00 00 
 80498f0:	8d 85 d8 df ff ff    	lea    -0x2028(%ebp),%eax
 80498f6:	89 85 d4 df ff ff    	mov    %eax,-0x202c(%ebp)
 80498fc:	b9 00 20 00 00       	mov    $0x2000,%ecx
 8049901:	8d 95 cc bf ff ff    	lea    -0x4034(%ebp),%edx
 8049907:	8d 85 cc df ff ff    	lea    -0x2034(%ebp),%eax
 804990d:	e8 de fa ff ff       	call   80493f0 <rio_readlineb>
 8049912:	85 c0                	test   %eax,%eax
 8049914:	7f 29                	jg     804993f <submitr+0x40a>
 8049916:	b8 ac a6 04 08       	mov    $0x804a6ac,%eax
 804991b:	b9 36 00 00 00       	mov    $0x36,%ecx
 8049920:	8b 7d 20             	mov    0x20(%ebp),%edi
 8049923:	89 c6                	mov    %eax,%esi
 8049925:	f3 a4                	rep movsb %ds:(%esi),%es:(%edi)
 8049927:	8b 85 b0 5f ff ff    	mov    -0xa050(%ebp),%eax
 804992d:	89 04 24             	mov    %eax,(%esp)
 8049930:	e8 df ef ff ff       	call   8048914 <close@plt>
 8049935:	b8 ff ff ff ff       	mov    $0xffffffff,%eax
 804993a:	e9 1f 02 00 00       	jmp    8049b5e <submitr+0x629>
 804993f:	8d 85 c8 5f ff ff    	lea    -0xa038(%ebp),%eax
 8049945:	89 44 24 10          	mov    %eax,0x10(%esp)
 8049949:	8d 85 c8 7f ff ff    	lea    -0x8038(%ebp),%eax
 804994f:	89 44 24 0c          	mov    %eax,0xc(%esp)
 8049953:	8d 85 cc 7f ff ff    	lea    -0x8034(%ebp),%eax
 8049959:	89 44 24 08          	mov    %eax,0x8(%esp)
 804995d:	c7 44 24 04 c7 a7 04 	movl   $0x804a7c7,0x4(%esp)
 8049964:	08 
 8049965:	8d 85 cc bf ff ff    	lea    -0x4034(%ebp),%eax
 804996b:	89 04 24             	mov    %eax,(%esp)
 804996e:	e8 b1 ee ff ff       	call   8048824 <__isoc99_sscanf@plt>
 8049973:	8b 85 c8 7f ff ff    	mov    -0x8038(%ebp),%eax
 8049979:	3d c8 00 00 00       	cmp    $0xc8,%eax
 804997e:	0f 84 d5 00 00 00    	je     8049a59 <submitr+0x524>
 8049984:	8d 95 c8 5f ff ff    	lea    -0xa038(%ebp),%edx
 804998a:	89 54 24 14          	mov    %edx,0x14(%esp)
 804998e:	89 44 24 10          	mov    %eax,0x10(%esp)
 8049992:	c7 44 24 0c e4 a6 04 	movl   $0x804a6e4,0xc(%esp)
 8049999:	08 
 804999a:	c7 44 24 08 ff ff ff 	movl   $0xffffffff,0x8(%esp)
 80499a1:	ff 
 80499a2:	c7 44 24 04 01 00 00 	movl   $0x1,0x4(%esp)
 80499a9:	00 
 80499aa:	8b 55 20             	mov    0x20(%ebp),%edx
 80499ad:	89 14 24             	mov    %edx,(%esp)
 80499b0:	e8 af ef ff ff       	call   8048964 <__sprintf_chk@plt>
 80499b5:	8b 8d b0 5f ff ff    	mov    -0xa050(%ebp),%ecx
 80499bb:	89 0c 24             	mov    %ecx,(%esp)
 80499be:	e8 51 ef ff ff       	call   8048914 <close@plt>
 80499c3:	b8 ff ff ff ff       	mov    $0xffffffff,%eax
 80499c8:	e9 91 01 00 00       	jmp    8049b5e <submitr+0x629>
 80499cd:	b9 00 20 00 00       	mov    $0x2000,%ecx
 80499d2:	8d 95 cc bf ff ff    	lea    -0x4034(%ebp),%edx
 80499d8:	8d 85 cc df ff ff    	lea    -0x2034(%ebp),%eax
 80499de:	e8 0d fa ff ff       	call   80493f0 <rio_readlineb>
 80499e3:	85 c0                	test   %eax,%eax
 80499e5:	7f 72                	jg     8049a59 <submitr+0x524>
 80499e7:	8b 75 20             	mov    0x20(%ebp),%esi
 80499ea:	c7 06 45 72 72 6f    	movl   $0x6f727245,(%esi)
 80499f0:	c7 46 04 72 3a 20 43 	movl   $0x43203a72,0x4(%esi)
 80499f7:	c7 46 08 6c 69 65 6e 	movl   $0x6e65696c,0x8(%esi)
 80499fe:	c7 46 0c 74 20 75 6e 	movl   $0x6e752074,0xc(%esi)
 8049a05:	c7 46 10 61 62 6c 65 	movl   $0x656c6261,0x10(%esi)
 8049a0c:	c7 46 14 20 74 6f 20 	movl   $0x206f7420,0x14(%esi)
 8049a13:	c7 46 18 72 65 61 64 	movl   $0x64616572,0x18(%esi)
 8049a1a:	c7 46 1c 20 68 65 61 	movl   $0x61656820,0x1c(%esi)
 8049a21:	c7 46 20 64 65 72 73 	movl   $0x73726564,0x20(%esi)
 8049a28:	c7 46 24 20 66 72 6f 	movl   $0x6f726620,0x24(%esi)
 8049a2f:	c7 46 28 6d 20 73 65 	movl   $0x6573206d,0x28(%esi)
 8049a36:	c7 46 2c 72 76 65 72 	movl   $0x72657672,0x2c(%esi)
 8049a3d:	c6 46 30 00          	movb   $0x0,0x30(%esi)
 8049a41:	8b bd b0 5f ff ff    	mov    -0xa050(%ebp),%edi
 8049a47:	89 3c 24             	mov    %edi,(%esp)
 8049a4a:	e8 c5 ee ff ff       	call   8048914 <close@plt>
 8049a4f:	b8 ff ff ff ff       	mov    $0xffffffff,%eax
 8049a54:	e9 05 01 00 00       	jmp    8049b5e <submitr+0x629>
 8049a59:	0f b6 05 d8 a7 04 08 	movzbl 0x804a7d8,%eax
 8049a60:	38 85 cc bf ff ff    	cmp    %al,-0x4034(%ebp)
 8049a66:	0f 85 61 ff ff ff    	jne    80499cd <submitr+0x498>
 8049a6c:	0f b6 15 d9 a7 04 08 	movzbl 0x804a7d9,%edx
 8049a73:	38 95 cd bf ff ff    	cmp    %dl,-0x4033(%ebp)
 8049a79:	0f 85 4e ff ff ff    	jne    80499cd <submitr+0x498>
 8049a7f:	0f b6 0d da a7 04 08 	movzbl 0x804a7da,%ecx
 8049a86:	38 8d ce bf ff ff    	cmp    %cl,-0x4032(%ebp)
 8049a8c:	0f 85 3b ff ff ff    	jne    80499cd <submitr+0x498>
 8049a92:	b9 00 20 00 00       	mov    $0x2000,%ecx
 8049a97:	8d 95 cc bf ff ff    	lea    -0x4034(%ebp),%edx
 8049a9d:	8d 85 cc df ff ff    	lea    -0x2034(%ebp),%eax
 8049aa3:	e8 48 f9 ff ff       	call   80493f0 <rio_readlineb>
 8049aa8:	85 c0                	test   %eax,%eax
 8049aaa:	7f 60                	jg     8049b0c <submitr+0x5d7>
 8049aac:	8b 7d 20             	mov    0x20(%ebp),%edi
 8049aaf:	be 14 a7 04 08       	mov    $0x804a714,%esi
 8049ab4:	b8 38 00 00 00       	mov    $0x38,%eax
 8049ab9:	f7 c7 01 00 00 00    	test   $0x1,%edi
 8049abf:	74 03                	je     8049ac4 <submitr+0x58f>
 8049ac1:	a4                   	movsb  %ds:(%esi),%es:(%edi)
 8049ac2:	b0 37                	mov    $0x37,%al
 8049ac4:	f7 c7 02 00 00 00    	test   $0x2,%edi
 8049aca:	74 05                	je     8049ad1 <submitr+0x59c>
 8049acc:	66 a5                	movsw  %ds:(%esi),%es:(%edi)
 8049ace:	83 e8 02             	sub    $0x2,%eax
 8049ad1:	89 c1                	mov    %eax,%ecx
 8049ad3:	c1 e9 02             	shr    $0x2,%ecx
 8049ad6:	f3 a5                	rep movsl %ds:(%esi),%es:(%edi)
 8049ad8:	ba 00 00 00 00       	mov    $0x0,%edx
 8049add:	a8 02                	test   $0x2,%al
 8049adf:	74 0b                	je     8049aec <submitr+0x5b7>
 8049ae1:	0f b7 16             	movzwl (%esi),%edx
 8049ae4:	66 89 17             	mov    %dx,(%edi)
 8049ae7:	ba 02 00 00 00       	mov    $0x2,%edx
 8049aec:	a8 01                	test   $0x1,%al
 8049aee:	74 07                	je     8049af7 <submitr+0x5c2>
 8049af0:	0f b6 04 16          	movzbl (%esi,%edx,1),%eax
 8049af4:	88 04 17             	mov    %al,(%edi,%edx,1)
 8049af7:	8b b5 b0 5f ff ff    	mov    -0xa050(%ebp),%esi
 8049afd:	89 34 24             	mov    %esi,(%esp)
 8049b00:	e8 0f ee ff ff       	call   8048914 <close@plt>
 8049b05:	b8 ff ff ff ff       	mov    $0xffffffff,%eax
 8049b0a:	eb 52                	jmp    8049b5e <submitr+0x629>
 8049b0c:	8d 85 cc bf ff ff    	lea    -0x4034(%ebp),%eax
 8049b12:	89 44 24 04          	mov    %eax,0x4(%esp)
 8049b16:	8b 7d 20             	mov    0x20(%ebp),%edi
 8049b19:	89 3c 24             	mov    %edi,(%esp)
 8049b1c:	e8 c3 ed ff ff       	call   80488e4 <strcpy@plt>
 8049b21:	8b 85 b0 5f ff ff    	mov    -0xa050(%ebp),%eax
 8049b27:	89 04 24             	mov    %eax,(%esp)
 8049b2a:	e8 e5 ed ff ff       	call   8048914 <close@plt>
 8049b2f:	b8 ff ff ff ff       	mov    $0xffffffff,%eax
 8049b34:	0f b6 15 db a7 04 08 	movzbl 0x804a7db,%edx
 8049b3b:	38 17                	cmp    %dl,(%edi)
 8049b3d:	75 1f                	jne    8049b5e <submitr+0x629>
 8049b3f:	0f b6 0d dc a7 04 08 	movzbl 0x804a7dc,%ecx
 8049b46:	38 4f 01             	cmp    %cl,0x1(%edi)
 8049b49:	75 13                	jne    8049b5e <submitr+0x629>
 8049b4b:	0f b6 47 02          	movzbl 0x2(%edi),%eax
 8049b4f:	3a 05 dd a7 04 08    	cmp    0x804a7dd,%al
 8049b55:	0f 94 c0             	sete   %al
 8049b58:	0f b6 c0             	movzbl %al,%eax
 8049b5b:	83 e8 01             	sub    $0x1,%eax
 8049b5e:	81 c4 6c a0 00 00    	add    $0xa06c,%esp
 8049b64:	5b                   	pop    %ebx
 8049b65:	5e                   	pop    %esi
 8049b66:	5f                   	pop    %edi
 8049b67:	5d                   	pop    %ebp
 8049b68:	c3                   	ret    
 8049b69:	8d 85 cc 9f ff ff    	lea    -0x6034(%ebp),%eax
 8049b6f:	89 44 24 1c          	mov    %eax,0x1c(%esp)
 8049b73:	8b 75 18             	mov    0x18(%ebp),%esi
 8049b76:	89 74 24 18          	mov    %esi,0x18(%esp)
 8049b7a:	8b 7d 14             	mov    0x14(%ebp),%edi
 8049b7d:	89 7c 24 14          	mov    %edi,0x14(%esp)
 8049b81:	8b 45 10             	mov    0x10(%ebp),%eax
 8049b84:	89 44 24 10          	mov    %eax,0x10(%esp)
 8049b88:	c7 44 24 0c 4c a7 04 	movl   $0x804a74c,0xc(%esp)
 8049b8f:	08 
 8049b90:	c7 44 24 08 00 20 00 	movl   $0x2000,0x8(%esp)
 8049b97:	00 
 8049b98:	c7 44 24 04 01 00 00 	movl   $0x1,0x4(%esp)
 8049b9f:	00 
 8049ba0:	8d bd cc bf ff ff    	lea    -0x4034(%ebp),%edi
 8049ba6:	89 3c 24             	mov    %edi,(%esp)
 8049ba9:	e8 b6 ed ff ff       	call   8048964 <__sprintf_chk@plt>
 8049bae:	b8 00 00 00 00       	mov    $0x0,%eax
 8049bb3:	b9 ff ff ff ff       	mov    $0xffffffff,%ecx
 8049bb8:	f2 ae                	repnz scas %es:(%edi),%al
 8049bba:	f7 d1                	not    %ecx
 8049bbc:	8d 79 ff             	lea    -0x1(%ecx),%edi
 8049bbf:	89 fb                	mov    %edi,%ebx
 8049bc1:	8d b5 cc bf ff ff    	lea    -0x4034(%ebp),%esi
 8049bc7:	85 ff                	test   %edi,%edi
 8049bc9:	0f 85 6b fc ff ff    	jne    804983a <submitr+0x305>
 8049bcf:	e9 06 fd ff ff       	jmp    80498da <submitr+0x3a5>

08049bd4 <init_timeout>:
 8049bd4:	55                   	push   %ebp
 8049bd5:	89 e5                	mov    %esp,%ebp
 8049bd7:	53                   	push   %ebx
 8049bd8:	83 ec 14             	sub    $0x14,%esp
 8049bdb:	8b 5d 08             	mov    0x8(%ebp),%ebx
 8049bde:	85 db                	test   %ebx,%ebx
 8049be0:	74 26                	je     8049c08 <init_timeout+0x34>
 8049be2:	c7 44 24 04 fe 94 04 	movl   $0x80494fe,0x4(%esp)
 8049be9:	08 
 8049bea:	c7 04 24 0e 00 00 00 	movl   $0xe,(%esp)
 8049bf1:	e8 0e ec ff ff       	call   8048804 <signal@plt>
 8049bf6:	85 db                	test   %ebx,%ebx
 8049bf8:	b8 00 00 00 00       	mov    $0x0,%eax
 8049bfd:	0f 48 d8             	cmovs  %eax,%ebx
 8049c00:	89 1c 24             	mov    %ebx,(%esp)
 8049c03:	e8 cc ec ff ff       	call   80488d4 <alarm@plt>
 8049c08:	83 c4 14             	add    $0x14,%esp
 8049c0b:	5b                   	pop    %ebx
 8049c0c:	5d                   	pop    %ebp
 8049c0d:	c3                   	ret    

08049c0e <init_driver>:
 8049c0e:	55                   	push   %ebp
 8049c0f:	89 e5                	mov    %esp,%ebp
 8049c11:	57                   	push   %edi
 8049c12:	56                   	push   %esi
 8049c13:	53                   	push   %ebx
 8049c14:	83 ec 3c             	sub    $0x3c,%esp
 8049c17:	8b 75 08             	mov    0x8(%ebp),%esi
 8049c1a:	c7 44 24 04 01 00 00 	movl   $0x1,0x4(%esp)
 8049c21:	00 
 8049c22:	c7 04 24 0d 00 00 00 	movl   $0xd,(%esp)
 8049c29:	e8 d6 eb ff ff       	call   8048804 <signal@plt>
 8049c2e:	c7 44 24 04 01 00 00 	movl   $0x1,0x4(%esp)
 8049c35:	00 
 8049c36:	c7 04 24 1d 00 00 00 	movl   $0x1d,(%esp)
 8049c3d:	e8 c2 eb ff ff       	call   8048804 <signal@plt>
 8049c42:	c7 44 24 04 01 00 00 	movl   $0x1,0x4(%esp)
 8049c49:	00 
 8049c4a:	c7 04 24 1d 00 00 00 	movl   $0x1d,(%esp)
 8049c51:	e8 ae eb ff ff       	call   8048804 <signal@plt>
 8049c56:	c7 44 24 08 00 00 00 	movl   $0x0,0x8(%esp)
 8049c5d:	00 
 8049c5e:	c7 44 24 04 01 00 00 	movl   $0x1,0x4(%esp)
 8049c65:	00 
 8049c66:	c7 04 24 02 00 00 00 	movl   $0x2,(%esp)
 8049c6d:	e8 42 ec ff ff       	call   80488b4 <socket@plt>
 8049c72:	89 c3                	mov    %eax,%ebx
 8049c74:	85 c0                	test   %eax,%eax
 8049c76:	79 4e                	jns    8049cc6 <init_driver+0xb8>
 8049c78:	c7 06 45 72 72 6f    	movl   $0x6f727245,(%esi)
 8049c7e:	c7 46 04 72 3a 20 43 	movl   $0x43203a72,0x4(%esi)
 8049c85:	c7 46 08 6c 69 65 6e 	movl   $0x6e65696c,0x8(%esi)
 8049c8c:	c7 46 0c 74 20 75 6e 	movl   $0x6e752074,0xc(%esi)
 8049c93:	c7 46 10 61 62 6c 65 	movl   $0x656c6261,0x10(%esi)
 8049c9a:	c7 46 14 20 74 6f 20 	movl   $0x206f7420,0x14(%esi)
 8049ca1:	c7 46 18 63 72 65 61 	movl   $0x61657263,0x18(%esi)
 8049ca8:	c7 46 1c 74 65 20 73 	movl   $0x73206574,0x1c(%esi)
 8049caf:	c7 46 20 6f 63 6b 65 	movl   $0x656b636f,0x20(%esi)
 8049cb6:	66 c7 46 24 74 00    	movw   $0x74,0x24(%esi)
 8049cbc:	b8 ff ff ff ff       	mov    $0xffffffff,%eax
 8049cc1:	e9 2b 01 00 00       	jmp    8049df1 <init_driver+0x1e3>
 8049cc6:	c7 04 24 b3 a4 04 08 	movl   $0x804a4b3,(%esp)
 8049ccd:	e8 c2 ec ff ff       	call   8048994 <gethostbyname@plt>
 8049cd2:	85 c0                	test   %eax,%eax
 8049cd4:	75 68                	jne    8049d3e <init_driver+0x130>
 8049cd6:	c7 06 45 72 72 6f    	movl   $0x6f727245,(%esi)
 8049cdc:	c7 46 04 72 3a 20 44 	movl   $0x44203a72,0x4(%esi)
 8049ce3:	c7 46 08 4e 53 20 69 	movl   $0x6920534e,0x8(%esi)
 8049cea:	c7 46 0c 73 20 75 6e 	movl   $0x6e752073,0xc(%esi)
 8049cf1:	c7 46 10 61 62 6c 65 	movl   $0x656c6261,0x10(%esi)
 8049cf8:	c7 46 14 20 74 6f 20 	movl   $0x206f7420,0x14(%esi)
 8049cff:	c7 46 18 72 65 73 6f 	movl   $0x6f736572,0x18(%esi)
 8049d06:	c7 46 1c 6c 76 65 20 	movl   $0x2065766c,0x1c(%esi)
 8049d0d:	c7 46 20 73 65 72 76 	movl   $0x76726573,0x20(%esi)
 8049d14:	c7 46 24 65 72 20 61 	movl   $0x61207265,0x24(%esi)
 8049d1b:	c7 46 28 64 64 72 65 	movl   $0x65726464,0x28(%esi)
 8049d22:	66 c7 46 2c 73 73    	movw   $0x7373,0x2c(%esi)
 8049d28:	c6 46 2e 00          	movb   $0x0,0x2e(%esi)
 8049d2c:	89 1c 24             	mov    %ebx,(%esp)
 8049d2f:	e8 e0 eb ff ff       	call   8048914 <close@plt>
 8049d34:	b8 ff ff ff ff       	mov    $0xffffffff,%eax
 8049d39:	e9 b3 00 00 00       	jmp    8049df1 <init_driver+0x1e3>
 8049d3e:	8d 7d d8             	lea    -0x28(%ebp),%edi
 8049d41:	c7 45 d8 00 00 00 00 	movl   $0x0,-0x28(%ebp)
 8049d48:	c7 45 dc 00 00 00 00 	movl   $0x0,-0x24(%ebp)
 8049d4f:	c7 45 e0 00 00 00 00 	movl   $0x0,-0x20(%ebp)
 8049d56:	c7 45 e4 00 00 00 00 	movl   $0x0,-0x1c(%ebp)
 8049d5d:	66 c7 45 d8 02 00    	movw   $0x2,-0x28(%ebp)
 8049d63:	c7 44 24 0c 0c 00 00 	movl   $0xc,0xc(%esp)
 8049d6a:	00 
 8049d6b:	8b 50 0c             	mov    0xc(%eax),%edx
 8049d6e:	89 54 24 08          	mov    %edx,0x8(%esp)
 8049d72:	8b 40 10             	mov    0x10(%eax),%eax
 8049d75:	8b 00                	mov    (%eax),%eax
 8049d77:	89 44 24 04          	mov    %eax,0x4(%esp)
 8049d7b:	8d 45 dc             	lea    -0x24(%ebp),%eax
 8049d7e:	89 04 24             	mov    %eax,(%esp)
 8049d81:	e8 fe eb ff ff       	call   8048984 <__memmove_chk@plt>
 8049d86:	66 c7 45 da 47 26    	movw   $0x2647,-0x26(%ebp)
 8049d8c:	c7 44 24 08 10 00 00 	movl   $0x10,0x8(%esp)
 8049d93:	00 
 8049d94:	89 7c 24 04          	mov    %edi,0x4(%esp)
 8049d98:	89 1c 24             	mov    %ebx,(%esp)
 8049d9b:	e8 24 ea ff ff       	call   80487c4 <connect@plt>
 8049da0:	85 c0                	test   %eax,%eax
 8049da2:	79 37                	jns    8049ddb <init_driver+0x1cd>
 8049da4:	c7 44 24 10 b3 a4 04 	movl   $0x804a4b3,0x10(%esp)
 8049dab:	08 
 8049dac:	c7 44 24 0c 98 a7 04 	movl   $0x804a798,0xc(%esp)
 8049db3:	08 
 8049db4:	c7 44 24 08 ff ff ff 	movl   $0xffffffff,0x8(%esp)
 8049dbb:	ff 
 8049dbc:	c7 44 24 04 01 00 00 	movl   $0x1,0x4(%esp)
 8049dc3:	00 
 8049dc4:	89 34 24             	mov    %esi,(%esp)
 8049dc7:	e8 98 eb ff ff       	call   8048964 <__sprintf_chk@plt>
 8049dcc:	89 1c 24             	mov    %ebx,(%esp)
 8049dcf:	e8 40 eb ff ff       	call   8048914 <close@plt>
 8049dd4:	b8 ff ff ff ff       	mov    $0xffffffff,%eax
 8049dd9:	eb 16                	jmp    8049df1 <init_driver+0x1e3>
 8049ddb:	89 1c 24             	mov    %ebx,(%esp)
 8049dde:	e8 31 eb ff ff       	call   8048914 <close@plt>
 8049de3:	66 c7 06 4f 4b       	movw   $0x4b4f,(%esi)
 8049de8:	c6 46 02 00          	movb   $0x0,0x2(%esi)
 8049dec:	b8 00 00 00 00       	mov    $0x0,%eax
 8049df1:	83 c4 3c             	add    $0x3c,%esp
 8049df4:	5b                   	pop    %ebx
 8049df5:	5e                   	pop    %esi
 8049df6:	5f                   	pop    %edi
 8049df7:	5d                   	pop    %ebp
 8049df8:	c3                   	ret    

08049df9 <driver_post>:
 8049df9:	55                   	push   %ebp
 8049dfa:	89 e5                	mov    %esp,%ebp
 8049dfc:	53                   	push   %ebx
 8049dfd:	83 ec 24             	sub    $0x24,%esp
 8049e00:	8b 45 08             	mov    0x8(%ebp),%eax
 8049e03:	8b 55 0c             	mov    0xc(%ebp),%edx
 8049e06:	8b 5d 14             	mov    0x14(%ebp),%ebx
 8049e09:	83 7d 10 00          	cmpl   $0x0,0x10(%ebp)
 8049e0d:	74 28                	je     8049e37 <driver_post+0x3e>
 8049e0f:	89 54 24 08          	mov    %edx,0x8(%esp)
 8049e13:	c7 44 24 04 de a7 04 	movl   $0x804a7de,0x4(%esp)
 8049e1a:	08 
 8049e1b:	c7 04 24 01 00 00 00 	movl   $0x1,(%esp)
 8049e22:	e8 0d ea ff ff       	call   8048834 <__printf_chk@plt>
 8049e27:	66 c7 03 4f 4b       	movw   $0x4b4f,(%ebx)
 8049e2c:	c6 43 02 00          	movb   $0x0,0x2(%ebx)
 8049e30:	b8 00 00 00 00       	mov    $0x0,%eax
 8049e35:	eb 49                	jmp    8049e80 <driver_post+0x87>
 8049e37:	85 c0                	test   %eax,%eax
 8049e39:	74 37                	je     8049e72 <driver_post+0x79>
 8049e3b:	80 38 00             	cmpb   $0x0,(%eax)
 8049e3e:	74 32                	je     8049e72 <driver_post+0x79>
 8049e40:	89 5c 24 18          	mov    %ebx,0x18(%esp)
 8049e44:	89 54 24 14          	mov    %edx,0x14(%esp)
 8049e48:	c7 44 24 10 f5 a7 04 	movl   $0x804a7f5,0x10(%esp)
 8049e4f:	08 
 8049e50:	89 44 24 0c          	mov    %eax,0xc(%esp)
 8049e54:	c7 44 24 08 fc a7 04 	movl   $0x804a7fc,0x8(%esp)
 8049e5b:	08 
 8049e5c:	c7 44 24 04 26 47 00 	movl   $0x4726,0x4(%esp)
 8049e63:	00 
 8049e64:	c7 04 24 b3 a4 04 08 	movl   $0x804a4b3,(%esp)
 8049e6b:	e8 c5 f6 ff ff       	call   8049535 <submitr>
 8049e70:	eb 0e                	jmp    8049e80 <driver_post+0x87>
 8049e72:	66 c7 03 4f 4b       	movw   $0x4b4f,(%ebx)
 8049e77:	c6 43 02 00          	movb   $0x0,0x2(%ebx)
 8049e7b:	b8 00 00 00 00       	mov    $0x0,%eax
 8049e80:	83 c4 24             	add    $0x24,%esp
 8049e83:	5b                   	pop    %ebx
 8049e84:	5d                   	pop    %ebp
 8049e85:	c3                   	ret    
 8049e86:	90                   	nop
 8049e87:	90                   	nop

08049e88 <hash>:
 8049e88:	55                   	push   %ebp
 8049e89:	89 e5                	mov    %esp,%ebp
 8049e8b:	8b 4d 08             	mov    0x8(%ebp),%ecx
 8049e8e:	0f b6 11             	movzbl (%ecx),%edx
 8049e91:	b8 00 00 00 00       	mov    $0x0,%eax
 8049e96:	84 d2                	test   %dl,%dl
 8049e98:	74 13                	je     8049ead <hash+0x25>
 8049e9a:	6b c0 67             	imul   $0x67,%eax,%eax
 8049e9d:	0f be d2             	movsbl %dl,%edx
 8049ea0:	8d 04 02             	lea    (%edx,%eax,1),%eax
 8049ea3:	83 c1 01             	add    $0x1,%ecx
 8049ea6:	0f b6 11             	movzbl (%ecx),%edx
 8049ea9:	84 d2                	test   %dl,%dl
 8049eab:	75 ed                	jne    8049e9a <hash+0x12>
 8049ead:	5d                   	pop    %ebp
 8049eae:	c3                   	ret    

08049eaf <check>:
 8049eaf:	55                   	push   %ebp
 8049eb0:	89 e5                	mov    %esp,%ebp
 8049eb2:	8b 55 08             	mov    0x8(%ebp),%edx
 8049eb5:	89 d1                	mov    %edx,%ecx
 8049eb7:	c1 e9 1c             	shr    $0x1c,%ecx
 8049eba:	b8 00 00 00 00       	mov    $0x0,%eax
 8049ebf:	85 c9                	test   %ecx,%ecx
 8049ec1:	74 23                	je     8049ee6 <check+0x37>
 8049ec3:	80 fa 0a             	cmp    $0xa,%dl
 8049ec6:	74 1e                	je     8049ee6 <check+0x37>
 8049ec8:	0f b6 ce             	movzbl %dh,%ecx
 8049ecb:	83 f9 0a             	cmp    $0xa,%ecx
 8049ece:	74 16                	je     8049ee6 <check+0x37>
 8049ed0:	89 d1                	mov    %edx,%ecx
 8049ed2:	c1 e9 10             	shr    $0x10,%ecx
 8049ed5:	80 f9 0a             	cmp    $0xa,%cl
 8049ed8:	74 0c                	je     8049ee6 <check+0x37>
 8049eda:	c1 ea 18             	shr    $0x18,%edx
 8049edd:	83 fa 0a             	cmp    $0xa,%edx
 8049ee0:	0f 95 c0             	setne  %al
 8049ee3:	0f b6 c0             	movzbl %al,%eax
 8049ee6:	5d                   	pop    %ebp
 8049ee7:	c3                   	ret    

08049ee8 <gencookie>:
 8049ee8:	55                   	push   %ebp
 8049ee9:	89 e5                	mov    %esp,%ebp
 8049eeb:	53                   	push   %ebx
 8049eec:	83 ec 14             	sub    $0x14,%esp
 8049eef:	8b 45 08             	mov    0x8(%ebp),%eax
 8049ef2:	89 04 24             	mov    %eax,(%esp)
 8049ef5:	e8 8e ff ff ff       	call   8049e88 <hash>
 8049efa:	89 04 24             	mov    %eax,(%esp)
 8049efd:	e8 b2 e8 ff ff       	call   80487b4 <srand@plt>
 8049f02:	e8 4d ea ff ff       	call   8048954 <rand@plt>
 8049f07:	89 c3                	mov    %eax,%ebx
 8049f09:	89 04 24             	mov    %eax,(%esp)
 8049f0c:	e8 9e ff ff ff       	call   8049eaf <check>
 8049f11:	85 c0                	test   %eax,%eax
 8049f13:	74 ed                	je     8049f02 <gencookie+0x1a>
 8049f15:	89 d8                	mov    %ebx,%eax
 8049f17:	83 c4 14             	add    $0x14,%esp
 8049f1a:	5b                   	pop    %ebx
 8049f1b:	5d                   	pop    %ebp
 8049f1c:	c3                   	ret    
 8049f1d:	90                   	nop
 8049f1e:	90                   	nop
 8049f1f:	90                   	nop

08049f20 <__libc_csu_init>:
 8049f20:	55                   	push   %ebp
 8049f21:	89 e5                	mov    %esp,%ebp
 8049f23:	57                   	push   %edi
 8049f24:	56                   	push   %esi
 8049f25:	53                   	push   %ebx
 8049f26:	e8 5a 00 00 00       	call   8049f85 <__i686.get_pc_thunk.bx>
 8049f2b:	81 c3 c9 20 00 00    	add    $0x20c9,%ebx
 8049f31:	83 ec 1c             	sub    $0x1c,%esp
 8049f34:	e8 2b e8 ff ff       	call   8048764 <_init>
 8049f39:	8d bb 20 ff ff ff    	lea    -0xe0(%ebx),%edi
 8049f3f:	8d 83 20 ff ff ff    	lea    -0xe0(%ebx),%eax
 8049f45:	29 c7                	sub    %eax,%edi
 8049f47:	c1 ff 02             	sar    $0x2,%edi
 8049f4a:	85 ff                	test   %edi,%edi
 8049f4c:	74 24                	je     8049f72 <__libc_csu_init+0x52>
 8049f4e:	31 f6                	xor    %esi,%esi
 8049f50:	8b 45 10             	mov    0x10(%ebp),%eax
 8049f53:	89 44 24 08          	mov    %eax,0x8(%esp)
 8049f57:	8b 45 0c             	mov    0xc(%ebp),%eax
 8049f5a:	89 44 24 04          	mov    %eax,0x4(%esp)
 8049f5e:	8b 45 08             	mov    0x8(%ebp),%eax
 8049f61:	89 04 24             	mov    %eax,(%esp)
 8049f64:	ff 94 b3 20 ff ff ff 	call   *-0xe0(%ebx,%esi,4)
 8049f6b:	83 c6 01             	add    $0x1,%esi
 8049f6e:	39 fe                	cmp    %edi,%esi
 8049f70:	72 de                	jb     8049f50 <__libc_csu_init+0x30>
 8049f72:	83 c4 1c             	add    $0x1c,%esp
 8049f75:	5b                   	pop    %ebx
 8049f76:	5e                   	pop    %esi
 8049f77:	5f                   	pop    %edi
 8049f78:	5d                   	pop    %ebp
 8049f79:	c3                   	ret    
 8049f7a:	8d b6 00 00 00 00    	lea    0x0(%esi),%esi

08049f80 <__libc_csu_fini>:
 8049f80:	55                   	push   %ebp
 8049f81:	89 e5                	mov    %esp,%ebp
 8049f83:	5d                   	pop    %ebp
 8049f84:	c3                   	ret    

08049f85 <__i686.get_pc_thunk.bx>:
 8049f85:	8b 1c 24             	mov    (%esp),%ebx
 8049f88:	c3                   	ret    
 8049f89:	90                   	nop
 8049f8a:	90                   	nop
 8049f8b:	90                   	nop
 8049f8c:	90                   	nop
 8049f8d:	90                   	nop
 8049f8e:	90                   	nop
 8049f8f:	90                   	nop

08049f90 <__do_global_ctors_aux>:
 8049f90:	55                   	push   %ebp
 8049f91:	89 e5                	mov    %esp,%ebp
 8049f93:	53                   	push   %ebx
 8049f94:	83 ec 04             	sub    $0x4,%esp
 8049f97:	a1 14 bf 04 08       	mov    0x804bf14,%eax
 8049f9c:	83 f8 ff             	cmp    $0xffffffff,%eax
 8049f9f:	74 13                	je     8049fb4 <__do_global_ctors_aux+0x24>
 8049fa1:	bb 14 bf 04 08       	mov    $0x804bf14,%ebx
 8049fa6:	66 90                	xchg   %ax,%ax
 8049fa8:	83 eb 04             	sub    $0x4,%ebx
 8049fab:	ff d0                	call   *%eax
 8049fad:	8b 03                	mov    (%ebx),%eax
 8049faf:	83 f8 ff             	cmp    $0xffffffff,%eax
 8049fb2:	75 f4                	jne    8049fa8 <__do_global_ctors_aux+0x18>
 8049fb4:	83 c4 04             	add    $0x4,%esp
 8049fb7:	5b                   	pop    %ebx
 8049fb8:	5d                   	pop    %ebp
 8049fb9:	c3                   	ret    
 8049fba:	90                   	nop
 8049fbb:	90                   	nop

Disassembly of section .fini:

08049fbc <_fini>:
 8049fbc:	55                   	push   %ebp
 8049fbd:	89 e5                	mov    %esp,%ebp
 8049fbf:	53                   	push   %ebx
 8049fc0:	83 ec 04             	sub    $0x4,%esp
 8049fc3:	e8 00 00 00 00       	call   8049fc8 <_fini+0xc>
 8049fc8:	5b                   	pop    %ebx
 8049fc9:	81 c3 2c 20 00 00    	add    $0x202c,%ebx
 8049fcf:	e8 2c ea ff ff       	call   8048a00 <__do_global_dtors_aux>
 8049fd4:	59                   	pop    %ecx
 8049fd5:	5b                   	pop    %ebx
 8049fd6:	c9                   	leave  
 8049fd7:	c3                   	ret    
